Microchip MPLAB XC8 Compiler V2.32

Linker command line:

-W-3 --edf=C:\Program Files\Microchip\xc8\v2.32\pic\dat\en_msgs.txt -cn \
  -h+dist/default/production\P03.A.DTH11_INTERFACING.X.production.sym \
  --cmf=dist/default/production\P03.A.DTH11_INTERFACING.X.production.cmf -z \
  -Q16F877A -oC:\Users\Naseef\AppData\Local\Temp\xcAsa80.4 \
  --defsym=__MPLAB_BUILD=1 \
  -Mdist/default/production/P03.A.DTH11_INTERFACING.X.production.map -E1 \
  -ver=XC8 Compiler --acfsm=1493 -ASTACK=0110h-016Fh -pstack=STACK \
  -ACODE=00h-07FFhx4 -ASTRCODE=00h-01FFFh -ASTRING=00h-0FFhx32 \
  -ACONST=00h-0FFhx32 -AENTRY=00h-0FFhx32 -ACOMMON=070h-07Fh \
  -ABANK0=020h-06Fh -ABANK1=0A0h-0EFh -ABANK2=0110h-016Fh \
  -ABANK3=0190h-01EFh -ARAM=020h-06Fh,0A0h-0EFh,0110h-016Fh,0190h-01EFh \
  -AABS1=020h-07Fh,0A0h-0EFh,0110h-016Fh,0190h-01EFh -ASFR0=00h-01Fh \
  -ASFR1=080h-09Fh -ASFR2=0100h-010Fh -ASFR3=0180h-018Fh \
  -ACONFIG=02007h-02007h -DCONFIG=2 -AIDLOC=02000h-02003h -DIDLOC=2 \
  -AEEDATA=00h-0FFh/02100h -peeprom_data=EEDATA -DEEDATA=2 -DCODE=2 \
  -DSTRCODE=2 -DSTRING=2 -DCONST=2 -DENTRY=2 \
  -preset_vec=00h,intentry,init,end_init -ppowerup=CODE -pcinit=CODE \
  -pfunctab=ENTRY -k C:\Users\Naseef\AppData\Local\Temp\xcAsa80.o \
  dist/default/production\P03.A.DTH11_INTERFACING.X.production.o 

Object code version is 3.11

Machine type is 16F877A



                Name                               Link     Load   Length Selector   Space Scale
C:\Users\Naseef\AppData\Local\Temp\xcAsa80.o
                end_init                              0        0        3        0       0
                config                             2007     2007        1        0       4
                idloc                              2000     2000        4        0       5
dist/default/production\P03.A.DTH11_INTERFACING.X.production.o
                cinit                               7EE      7EE       12      FDC       0
                config                             2007     2007        1        0       4
                idloc                              2000     2000        4        0       5
                text12                              31E      31E       1D      63C       0
                text11                              3C2      3C2       40      784       0
                text10                              35A      35A       2E      6B4       0
                text9                               442      442       42      884       0
                text8                               304      304       1A      608       0
                text7                               402      402       40      804       0
                text6                               33B      33B       1F      676       0
                text5                               521      521       67      A42       0
                text4                               4C8      4C8       59      990       0
                text3                               484      484       44      908       0
                text2                               388      388       3A      710       0
                text1                               65C      65C      192      CB8       0
                maintext                            588      588       D4      B10       0
                cstackBANK0                          20       20       16       20       1
                cstackCOMMON                         70       70        B       70       1
                bssBANK0                             36       36        9       20       1
                bssCOMMON                            7B       7B        3       70       1
                strings                               3        3       12        6       0

TOTAL           Name                               Link     Load   Length     Space
        CLASS   STACK          

        CLASS   CODE           
                end_init                              0        0        3         0
                cinit                               7EE      7EE       12         0
                text12                              31E      31E       1D         0
                text11                              3C2      3C2       40         0
                text10                              35A      35A       2E         0
                text9                               442      442       42         0
                text8                               304      304       1A         0
                text7                               402      402       40         0
                text6                               33B      33B       1F         0
                text5                               521      521       67         0
                text4                               4C8      4C8       59         0
                text3                               484      484       44         0
                text2                               388      388       3A         0
                text1                               65C      65C      192         0
                maintext                            588      588       D4         0

        CLASS   STRCODE        

        CLASS   STRING         
                strings                               3        3       12         0

        CLASS   CONST          

        CLASS   ENTRY          

        CLASS   COMMON         
                cstackCOMMON                         70       70        B         1
                bssCOMMON                            7B       7B        3         1

        CLASS   BANK0          
                cstackBANK0                          20       20       16         1
                bssBANK0                             36       36        9         1

        CLASS   BANK1          

        CLASS   BANK2          

        CLASS   BANK3          

        CLASS   RAM            

        CLASS   ABS1           
                abs_s1                               7E       7E        2         1

        CLASS   SFR0           

        CLASS   SFR1           

        CLASS   SFR2           

        CLASS   SFR3           

        CLASS   CONFIG         
                config                             2007     2007        1         4

        CLASS   IDLOC          
                idloc                              2000     2000        4         5

        CLASS   EEDATA         



SEGMENTS        Name                           Load    Length   Top    Selector   Space  Class     Delta

                reset_vec                      000000  000003  000003         0       0  CODE        2
                strings                        000003  000012  000015         6       0  STRING      2
                cstackBANK0                    000020  00001F  00003F        20       1  BANK0       1
                cstackCOMMON                   000070  00000E  00007E        70       1  COMMON      1
                text8                          000304  00001A  00031E       608       0  CODE        2
                text12                         00031E  00001D  00033B       63C       0  CODE        2
                text6                          00033B  00001F  00035A       676       0  CODE        2
                text10                         00035A  00002E  000388       6B4       0  CODE        2
                text2                          000388  00003A  0003C2       710       0  CODE        2
                text11                         0003C2  000040  000402       784       0  CODE        2
                text7                          000402  000040  000442       804       0  CODE        2
                text9                          000442  000042  000484       884       0  CODE        2
                text3                          000484  000044  0004C8       908       0  CODE        2
                text4                          0004C8  000059  000521       990       0  CODE        2
                text5                          000521  000067  000588       A42       0  CODE        2
                maintext                       000588  0000D4  00065C       B10       0  CODE        2
                text1                          00065C  000192  0007EE       CB8       0  CODE        2
                cinit                          0007EE  000012  000800       FDC       0  CODE        2


UNUSED ADDRESS RANGES

        Name                Unused          Largest block    Delta
        BANK0            003F-006F             31           1
        BANK1            00A0-00EF             50           1
        BANK2            0110-016F             60           1
        BANK3            0190-01EF             60           1
        CODE             0015-0303            2EF           2
                         0800-1FFF            800
        CONST            0015-0303            100           2
                         0800-1FFF            100
        EEDATA           2100-21FF            100           2
        ENTRY            0015-0303            100           2
                         0800-1FFF            100
        RAM              003F-006F             31           1
                         00A0-00EF             50
                         0110-016F             60
                         0190-01EF             60
        SFR0             0000-001F             20           1
        SFR1             0080-009F             20           1
        SFR2             0100-010F             10           1
        SFR3             0180-018F             10           1
        STACK            0110-016F             60           1
        STRCODE          0015-0303            2EF           2
                         0800-1FFF           1800
        STRING           0015-0303            100           2
                         0800-1FFF            100

                                  Symbol Table

?___awdiv                  cstackCOMMON 0070
?___awmod                  cstackCOMMON 0070
?___lwdiv                  cstackCOMMON 0070
?___lwmod                  cstackCOMMON 0070
LCD_Char@data              cstackCOMMON 0072
LCD_Command@cmnd           cstackCOMMON 0072
ReadData@i                 cstackCOMMON 0072
ReadData@j                 cstackCOMMON 0073
_Check                     bssCOMMON    007D
_CheckResponse2            text12       031E
_LCD_Char                  text7        0402
_LCD_Command               text11       03C2
_LCD_init                  text10       035A
_PORTB                     (abs)        0006
_PORTDbits                 (abs)        0008
_RC0                       (abs)        0038
_RC1                       (abs)        0039
_RH                        bssBANK0     0038
_RH_byte1                  bssCOMMON    007B
_RH_byte2                  bssBANK0     003D
_ReadData                  text9        0442
_StartSignal2              text8        0304
_Sum                       bssBANK0     0036
_TRISB                     (abs)        0086
_TRISC                     (abs)        0087
_TRISDbits                 (abs)        0088
_T_byte1                   bssCOMMON    007C
_T_byte2                   bssBANK0     003E
_Temp                      bssBANK0     003A
__Habs1                    abs1         0000
__Hbank0                   bank0        0000
__Hbank1                   bank1        0000
__Hbank2                   bank2        0000
__Hbank3                   bank3        0000
__HbssBANK0                bssBANK0     0000
__HbssCOMMON               bssCOMMON    0000
__Hcinit                   cinit        0800
__Hclrtext                 clrtext      0000
__Hcode                    code         0000
__Hcommon                  common       0000
__Hconfig                  config       2008
__HcstackBANK0             cstackBANK0  0000
__HcstackCOMMON            cstackCOMMON 0000
__Heeprom_data             eeprom_data  0000
__Hend_init                end_init     0003
__Hfunctab                 functab      0000
__Hidloc                   idloc        2004
__Hinit                    init         0000
__Hintentry                intentry     0000
__Hmaintext                maintext     0000
__Hpowerup                 powerup      0000
__Hram                     ram          0000
__Hreset_vec               reset_vec    0000
__Hsfr0                    sfr0         0000
__Hsfr1                    sfr1         0000
__Hsfr2                    sfr2         0000
__Hsfr3                    sfr3         0000
__Hspace_0                 (abs)        0800
__Hspace_1                 (abs)        007E
__Hspace_2                 (abs)        0000
__Hspace_3                 (abs)        0000
__Hspace_4                 (abs)        400F
__Hstack                   stack        0000
__Hstrings                 strings      0000
__Htext                    text         0000
__Labs1                    abs1         0000
__Lbank0                   bank0        0000
__Lbank1                   bank1        0000
__Lbank2                   bank2        0000
__Lbank3                   bank3        0000
__LbssBANK0                bssBANK0     0000
__LbssCOMMON               bssCOMMON    0000
__Lcinit                   cinit        07EE
__Lclrtext                 clrtext      0000
__Lcode                    code         0000
__Lcommon                  common       0000
__Lconfig                  config       0000
__LcstackBANK0             cstackBANK0  0000
__LcstackCOMMON            cstackCOMMON 0000
__Leeprom_data             eeprom_data  0000
__Lend_init                end_init     0000
__Lfunctab                 functab      0000
__Lidloc                   idloc        0000
__Linit                    init         0000
__Lintentry                intentry     0000
__Lmaintext                maintext     0000
__Lpowerup                 powerup      0000
__Lram                     ram          0000
__Lreset_vec               reset_vec    0000
__Lsfr0                    sfr0         0000
__Lsfr1                    sfr1         0000
__Lsfr2                    sfr2         0000
__Lsfr3                    sfr3         0000
__Lspace_0                 (abs)        0000
__Lspace_1                 (abs)        0000
__Lspace_2                 (abs)        0000
__Lspace_3                 (abs)        0000
__Lspace_4                 (abs)        0000
__Lstack                   stack        0000
__Lstrings                 strings      0000
__Ltext                    text         0000
__S0                       (abs)        0800
__S1                       (abs)        007E
__S2                       (abs)        0000
__S3                       (abs)        0000
___awdiv                   text5        0521
___awdiv@counter           cstackCOMMON 0075
___awdiv@dividend          cstackCOMMON 0072
___awdiv@divisor           cstackCOMMON 0070
___awdiv@quotient          cstackCOMMON 0077
___awdiv@sign              cstackCOMMON 0076
___awmod                   text4        04C8
___awmod@counter           cstackCOMMON 0075
___awmod@dividend          cstackCOMMON 0072
___awmod@divisor           cstackCOMMON 0070
___awmod@sign              cstackCOMMON 0076
___int_sp                  stack        0000
___latbits                 (abs)        0002
___lwdiv                   text3        0484
___lwdiv@counter           cstackCOMMON 0077
___lwdiv@dividend          cstackCOMMON 0072
___lwdiv@divisor           cstackCOMMON 0070
___lwdiv@quotient          cstackCOMMON 0075
___lwmod                   text2        0388
___lwmod@counter           cstackCOMMON 0075
___lwmod@dividend          cstackCOMMON 0072
___lwmod@divisor           cstackCOMMON 0070
___sp                      stack        0000
___stackhi                 (abs)        0000
___stacklo                 (abs)        0000
__end_of_CheckResponse2    text12       033B
__end_of_LCD_Char          text7        0442
__end_of_LCD_Command       text11       0402
__end_of_LCD_init          text10       0388
__end_of_ReadData          text9        0484
__end_of_StartSignal2      text8        031E
__end_of___awdiv           text5        0588
__end_of___awmod           text4        0521
__end_of___lwdiv           text3        04C8
__end_of___lwmod           text2        03C2
__end_of__initialization   cinit        07FC
__end_of__stringtab        strings      0009
__end_of_main              maintext     065C
__end_of_show              text6        035A
__end_of_show_multidigits  text1        07EE
__initialization           cinit        07EE
__pbssBANK0                bssBANK0     0036
__pbssCOMMON               bssCOMMON    007B
__pcstackBANK0             cstackBANK0  0020
__pcstackCOMMON            cstackCOMMON 0070
__pmaintext                maintext     0588
__pstrings                 strings      0003
__ptext1                   text1        065C
__ptext10                  text10       035A
__ptext11                  text11       03C2
__ptext12                  text12       031E
__ptext2                   text2        0388
__ptext3                   text3        0484
__ptext4                   text4        04C8
__ptext5                   text5        0521
__ptext6                   text6        033B
__ptext7                   text7        0402
__ptext8                   text8        0304
__ptext9                   text9        0442
__size_of_CheckResponse2   (abs)        0000
__size_of_LCD_Char         (abs)        0000
__size_of_LCD_Command      (abs)        0000
__size_of_LCD_init         (abs)        0000
__size_of_ReadData         (abs)        0000
__size_of_StartSignal2     (abs)        0000
__size_of___awdiv          (abs)        0000
__size_of___awmod          (abs)        0000
__size_of___lwdiv          (abs)        0000
__size_of___lwmod          (abs)        0000
__size_of_main             (abs)        0000
__size_of_show             (abs)        0000
__size_of_show_multidigits (abs)        0000
__stringbase               strings      0008
__stringtab                strings      0003
_main                      maintext     0588
_show                      text6        033B
_show_multidigits          text1        065C
btemp                      (abs)        007E
end_of_initialization      cinit        07FC
intlevel0                  functab      0000
intlevel1                  functab      0000
intlevel2                  functab      0000
intlevel3                  functab      0000
intlevel4                  functab      0000
intlevel5                  functab      0000
reset_vec                  reset_vec    0000
show@s                     cstackCOMMON 0074
show_multidigits@digit1    cstackBANK0  0026
show_multidigits@digit2    cstackBANK0  0028
show_multidigits@digit3    cstackBANK0  0024
show_multidigits@digit4    cstackBANK0  0020
show_multidigits@remainder cstackBANK0  002C
show_multidigits@result    cstackBANK0  0022
show_multidigits@result1   cstackBANK0  002A
show_multidigits@val       cstackCOMMON 0079
start                      init         0000
start_initialization       cinit        07EE
wtemp0                     (abs)        007E


MODULE INFORMATION

Module		Function		Class		Link	Load	Size
C:\Program Files\Microchip\xc8\v2.32\pic\sources\c90\common\lwmod.c
		___lwmod       		CODE           	0388	0000	58

C:\Program Files\Microchip\xc8\v2.32\pic\sources\c90\common\lwmod.c estimated size: 58

C:\Program Files\Microchip\xc8\v2.32\pic\sources\c90\common\awmod.c
		___awmod       		CODE           	04C8	0000	89

C:\Program Files\Microchip\xc8\v2.32\pic\sources\c90\common\awmod.c estimated size: 89

main_dht11.c
		_show_multidigits		CODE           	065C	0000	402
		_LCD_Command   		CODE           	03C2	0000	64
		_CheckResponse2		CODE           	031E	0000	29
		_StartSignal2  		CODE           	0304	0000	26
		_main          		CODE           	0588	0000	212
		_LCD_Char      		CODE           	0402	0000	64
		_show          		CODE           	033B	0000	31
		_LCD_init      		CODE           	035A	0000	46
		_ReadData      		CODE           	0442	0000	66

main_dht11.c estimated size: 940

shared
		__stringtab    		STRING         	0003	0000	6
		__initialization		CODE           	07EE	0000	14

shared estimated size: 20

C:\Program Files\Microchip\xc8\v2.32\pic\sources\c90\common\lwdiv.c
		___lwdiv       		CODE           	0484	0000	68

C:\Program Files\Microchip\xc8\v2.32\pic\sources\c90\common\lwdiv.c estimated size: 68

C:\Program Files\Microchip\xc8\v2.32\pic\sources\c90\common\awdiv.c
		___awdiv       		CODE           	0521	0000	103

C:\Program Files\Microchip\xc8\v2.32\pic\sources\c90\common\awdiv.c estimated size: 103

