

Microchip MPLAB XC8 Assembler V2.32 build 20210201212658 
                                                                                               Wed May 25 10:12:43 2022

Microchip MPLAB XC8 C Compiler v2.32 (Free license) build 20210201212658 Og1 
     1                           	processor	16F877A
     2                           	pagewidth 120
     3                           	opt	flic
     4                           	psect	idataBANK0,global,class=CODE,delta=2,noexec
     5                           	psect	strings,global,class=STRING,delta=2,noexec
     6                           	psect	stringtext,global,reloc=256,class=STRCODE,delta=2,noexec
     7                           	psect	cinit,global,class=CODE,merge=1,delta=2
     8                           	psect	bssCOMMON,global,class=COMMON,space=1,delta=1,noexec
     9                           	psect	bssBANK0,global,class=BANK0,space=1,delta=1,noexec
    10                           	psect	dataBANK0,global,class=BANK0,space=1,delta=1,noexec
    11                           	psect	inittext,global,class=CODE,delta=2
    12                           	psect	cstackCOMMON,global,class=COMMON,space=1,delta=1,noexec
    13                           	psect	cstackBANK0,global,class=BANK0,space=1,delta=1,noexec
    14                           	psect	maintext,global,class=CODE,split=1,delta=2
    15                           	psect	text1,local,class=CODE,merge=1,delta=2
    16                           	psect	text2,local,class=CODE,merge=1,delta=2
    17                           	psect	text3,local,class=CODE,merge=1,delta=2
    18                           	psect	text4,local,class=CODE,merge=1,delta=2
    19                           	psect	text5,local,class=CODE,merge=1,delta=2
    20                           	psect	text6,local,class=CODE,merge=1,delta=2,group=1
    21                           	psect	text7,local,class=CODE,merge=1,delta=2
    22                           	psect	text8,local,class=CODE,merge=1,delta=2,group=1
    23                           	psect	text9,local,class=CODE,merge=1,delta=2,group=1
    24                           	psect	text10,local,class=CODE,merge=1,delta=2
    25                           	psect	text11,local,class=CODE,merge=1,delta=2
    26                           	psect	text12,local,class=CODE,merge=1,delta=2
    27                           	psect	idloc,global,abs,ovrld,class=IDLOC,space=5,delta=2,noexec
    28                           	psect	config,global,abs,ovrld,class=CONFIG,space=4,delta=2,noexec
    29                           	dabs	1,0x7E,2
    30  0000                     
    31                           ; Version 2.40
    32                           ; Generated 17/11/2021 GMT
    33                           ; 
    34                           ; Copyright © 2021, Microchip Technology Inc. and its subsidiaries ("Microchip")
    35                           ; All rights reserved.
    36                           ; 
    37                           ; This software is developed by Microchip Technology Inc. and its subsidiaries ("Microch
      +                          ip").
    38                           ; 
    39                           ; Redistribution and use in source and binary forms, with or without modification, are
    40                           ; permitted provided that the following conditions are met:
    41                           ; 
    42                           ;     1. Redistributions of source code must retain the above copyright notice, this lis
      +                          t of
    43                           ;        conditions and the following disclaimer.
    44                           ; 
    45                           ;     2. Redistributions in binary form must reproduce the above copyright notice, this 
      +                          list
    46                           ;        of conditions and the following disclaimer in the documentation and/or other
    47                           ;        materials provided with the distribution. Publication is not required when
    48                           ;        this file is used in an embedded application.
    49                           ; 
    50                           ;     3. Microchip's name may not be used to endorse or promote products derived from th
      +                          is
    51                           ;        software without specific prior written permission.
    52                           ; 
    53                           ; THIS SOFTWARE IS PROVIDED BY MICROCHIP "AS IS" AND ANY EXPRESS OR IMPLIED WARRANTIES,
    54                           ; INCLUDING, BUT NOT LIMITED TO, THE IMPLIED WARRANTIES OF MERCHANTABILITY AND FITNESS F
      +                          OR
    55                           ; PURPOSE ARE DISCLAIMED.  IN NO EVENT SHALL MICROCHIP BE LIABLE FOR ANY DIRECT, INDIREC
      +                          T,
    56                           ; INCIDENTAL, SPECIAL, EXEMPLARY, OR CONSEQUENTIAL DAMAGES (INCLUDING BUT NOT LIMITED TO
    57                           ; PROCUREMENT OF SUBSTITUTE GOODS OR SERVICES; LOSS OF USE, DATA OR PROFITS; OR BUSINESS
    58                           ; INTERRUPTION) HOWSOEVER CAUSED AND ON ANY THEORY OF LIABILITY, WHETHER IN CONTRACT, ST
      +                          RICT
    59                           ; LIABILITY, OR TORT (INCLUDING NEGLIGENCE OR OTHERWISE) ARISING IN ANY WAY OUT OF THE U
      +                          SE OF
    60                           ; THIS SOFTWARE, EVEN IF ADVISED OF THE POSSIBILITY OF SUCH DAMAGE.
    61                           ; 
    62                           ; 
    63                           ; Code-generator required, PIC16F877A Definitions
    64                           ; 
    65                           ; SFR Addresses
    66  0000                     	;# 
    67  0001                     	;# 
    68  0002                     	;# 
    69  0003                     	;# 
    70  0004                     	;# 
    71  0005                     	;# 
    72  0006                     	;# 
    73  0007                     	;# 
    74  0008                     	;# 
    75  0009                     	;# 
    76  000A                     	;# 
    77  000B                     	;# 
    78  000C                     	;# 
    79  000D                     	;# 
    80  000E                     	;# 
    81  000E                     	;# 
    82  000F                     	;# 
    83  0010                     	;# 
    84  0011                     	;# 
    85  0012                     	;# 
    86  0013                     	;# 
    87  0014                     	;# 
    88  0015                     	;# 
    89  0015                     	;# 
    90  0016                     	;# 
    91  0017                     	;# 
    92  0018                     	;# 
    93  0019                     	;# 
    94  001A                     	;# 
    95  001B                     	;# 
    96  001B                     	;# 
    97  001C                     	;# 
    98  001D                     	;# 
    99  001E                     	;# 
   100  001F                     	;# 
   101  0081                     	;# 
   102  0085                     	;# 
   103  0086                     	;# 
   104  0087                     	;# 
   105  0088                     	;# 
   106  0089                     	;# 
   107  008C                     	;# 
   108  008D                     	;# 
   109  008E                     	;# 
   110  0091                     	;# 
   111  0092                     	;# 
   112  0093                     	;# 
   113  0094                     	;# 
   114  0098                     	;# 
   115  0099                     	;# 
   116  009C                     	;# 
   117  009D                     	;# 
   118  009E                     	;# 
   119  009F                     	;# 
   120  010C                     	;# 
   121  010D                     	;# 
   122  010E                     	;# 
   123  010F                     	;# 
   124  018C                     	;# 
   125  018D                     	;# 
   126  0000                     	;# 
   127  0001                     	;# 
   128  0002                     	;# 
   129  0003                     	;# 
   130  0004                     	;# 
   131  0005                     	;# 
   132  0006                     	;# 
   133  0007                     	;# 
   134  0008                     	;# 
   135  0009                     	;# 
   136  000A                     	;# 
   137  000B                     	;# 
   138  000C                     	;# 
   139  000D                     	;# 
   140  000E                     	;# 
   141  000E                     	;# 
   142  000F                     	;# 
   143  0010                     	;# 
   144  0011                     	;# 
   145  0012                     	;# 
   146  0013                     	;# 
   147  0014                     	;# 
   148  0015                     	;# 
   149  0015                     	;# 
   150  0016                     	;# 
   151  0017                     	;# 
   152  0018                     	;# 
   153  0019                     	;# 
   154  001A                     	;# 
   155  001B                     	;# 
   156  001B                     	;# 
   157  001C                     	;# 
   158  001D                     	;# 
   159  001E                     	;# 
   160  001F                     	;# 
   161  0081                     	;# 
   162  0085                     	;# 
   163  0086                     	;# 
   164  0087                     	;# 
   165  0088                     	;# 
   166  0089                     	;# 
   167  008C                     	;# 
   168  008D                     	;# 
   169  008E                     	;# 
   170  0091                     	;# 
   171  0092                     	;# 
   172  0093                     	;# 
   173  0094                     	;# 
   174  0098                     	;# 
   175  0099                     	;# 
   176  009C                     	;# 
   177  009D                     	;# 
   178  009E                     	;# 
   179  009F                     	;# 
   180  010C                     	;# 
   181  010D                     	;# 
   182  010E                     	;# 
   183  010F                     	;# 
   184  018C                     	;# 
   185  018D                     	;# 
   186                           
   187                           	psect	idataBANK0
   188  0288                     __pidataBANK0:
   189                           
   190                           ;initializer for _keypad
   191  0288  3437               	retlw	55
   192  0289  3438               	retlw	56
   193  028A  3439               	retlw	57
   194  028B  342F               	retlw	47
   195  028C  3434               	retlw	52
   196  028D  3435               	retlw	53
   197  028E  3436               	retlw	54
   198  028F  342A               	retlw	42
   199  0290  3431               	retlw	49
   200  0291  3432               	retlw	50
   201  0292  3433               	retlw	51
   202  0293  342D               	retlw	45
   203  0294  3443               	retlw	67
   204  0295  3430               	retlw	48
   205  0296  343D               	retlw	61
   206  0297  342B               	retlw	43
   207                           
   208                           ;initializer for lookuptable@F1010
   209  0298  342D               	retlw	45
   210  0299  3414               	retlw	20
   211  029A  3405               	retlw	5
   212  029B  3437               	retlw	55
   213                           
   214                           ;initializer for lookuptable@F1008
   215  029C  342D               	retlw	45
   216  029D  340F               	retlw	15
   217  029E  3407               	retlw	7
   218  029F  3436               	retlw	54
   219                           
   220                           ;initializer for lookuptable@F1006
   221  02A0  342D               	retlw	45
   222  02A1  340A               	retlw	10
   223  02A2  3408               	retlw	8
   224  02A3  3435               	retlw	53
   225                           
   226                           ;initializer for lookuptable@F1004
   227  02A4  3417               	retlw	23
   228  02A5  3414               	retlw	20
   229  02A6  3403               	retlw	3
   230  02A7  3434               	retlw	52
   231                           
   232                           ;initializer for lookuptable@F1002
   233  02A8  3417               	retlw	23
   234  02A9  340F               	retlw	15
   235  02AA  3403               	retlw	3
   236  02AB  3433               	retlw	51
   237                           
   238                           ;initializer for lookuptable@F1000
   239  02AC  3417               	retlw	23
   240  02AD  340A               	retlw	10
   241  02AE  3404               	retlw	4
   242  02AF  3432               	retlw	50
   243                           
   244                           ;initializer for lookuptable@F998
   245  02B0  3411               	retlw	17
   246  02B1  3414               	retlw	20
   247  02B2  3401               	retlw	1
   248  02B3  3433               	retlw	51
   249                           
   250                           ;initializer for lookuptable@F996
   251  02B4  3411               	retlw	17
   252  02B5  340F               	retlw	15
   253  02B6  3402               	retlw	2
   254  02B7  3432               	retlw	50
   255                           
   256                           ;initializer for lookuptable@F994
   257  02B8  3411               	retlw	17
   258  02B9  340A               	retlw	10
   259  02BA  3402               	retlw	2
   260  02BB  3431               	retlw	49
   261  0008                     _PORTD	set	8
   262  0007                     _PORTC	set	7
   263  0031                     _RB1	set	49
   264  0034                     _RB4	set	52
   265  0037                     _RB7	set	55
   266  0043                     _RD3	set	67
   267  0042                     _RD2	set	66
   268  0041                     _RD1	set	65
   269  0040                     _RD0	set	64
   270  0047                     _RD7	set	71
   271  0046                     _RD6	set	70
   272  0045                     _RD5	set	69
   273  0044                     _RD4	set	68
   274  003B                     _RC3	set	59
   275  003A                     _RC2	set	58
   276  0088                     _TRISD	set	136
   277  0087                     _TRISC	set	135
   278  0086                     _TRISB	set	134
   279                           
   280                           	psect	strings
   281  0003                     __pstrings:
   282  0003                     stringtab:
   283  0003                     __stringtab:
   284                           
   285                           ;	String table - string pointers are 2 bytes each
   286  0003  1BFF               	btfsc	btemp+1,7
   287  0004  280D               	ljmp	stringcode
   288  0005  1383               	bcf	3,7
   289  0006  187F               	btfsc	btemp+1,0
   290  0007  1783               	bsf	3,7
   291  0008  0800               	movf	0,w
   292  0009  0A84               	incf	4,f
   293  000A  1903               	skipnz
   294  000B  0AFF               	incf	btemp+1,f
   295  000C  0008               	return
   296  000D                     stringcode:
   297  000D  087F               	movf	btemp+1,w
   298  000E  397F               	andlw	127
   299  000F  008A               	movwf	10
   300  0010  0804               	movf	4,w
   301  0011  0A84               	incf	4,f
   302  0012  1903               	skipnz
   303  0013  0AFF               	incf	btemp+1,f
   304  0014  0082               	movwf	2
   305  0015                     __stringbase:
   306  0015                     __end_of__stringtab:
   307                           
   308                           	psect	stringtext
   309  0800                     __pstringtext:
   310  0800                     STR_1:
   311  0800  3445               	retlw	69	;'E'
   312  0801  346E               	retlw	110	;'n'
   313  0802  3474               	retlw	116	;'t'
   314  0803  3465               	retlw	101	;'e'
   315  0804  3472               	retlw	114	;'r'
   316  0805  3420               	retlw	32	;' '
   317  0806  3474               	retlw	116	;'t'
   318  0807  3468               	retlw	104	;'h'
   319  0808  3465               	retlw	101	;'e'
   320  0809  3420               	retlw	32	;' '
   321  080A  3442               	retlw	66	;'B'
   322  080B  346F               	retlw	111	;'o'
   323  080C  3462               	retlw	98	;'b'
   324  080D  3462               	retlw	98	;'b'
   325  080E  3469               	retlw	105	;'i'
   326  080F  346E               	retlw	110	;'n'
   327  0810  3420               	retlw	32	;' '
   328  0811  3453               	retlw	83	;'S'
   329  0812  3469               	retlw	105	;'i'
   330  0813  347A               	retlw	122	;'z'
   331  0814  3465               	retlw	101	;'e'
   332  0815  343A               	retlw	58	;':'
   333  0816  3400               	retlw	0
   334  0817                     STR_4:
   335  0817  3449               	retlw	73	;'I'
   336  0818  346E               	retlw	110	;'n'
   337  0819  3476               	retlw	118	;'v'
   338  081A  3461               	retlw	97	;'a'
   339  081B  346C               	retlw	108	;'l'
   340  081C  3469               	retlw	105	;'i'
   341  081D  3464               	retlw	100	;'d'
   342  081E  3420               	retlw	32	;' '
   343  081F  3444               	retlw	68	;'D'
   344  0820  3461               	retlw	97	;'a'
   345  0821  3474               	retlw	116	;'t'
   346  0822  3461               	retlw	97	;'a'
   347  0823  3420               	retlw	32	;' '
   348  0824  3449               	retlw	73	;'I'
   349  0825  346E               	retlw	110	;'n'
   350  0826  3470               	retlw	112	;'p'
   351  0827  3475               	retlw	117	;'u'
   352  0828  3474               	retlw	116	;'t'
   353  0829  3421               	retlw	33	;'!'
   354  082A  3421               	retlw	33	;'!'
   355  082B  3400               	retlw	0
   356  082C                     STR_2:
   357  082C  3445               	retlw	69	;'E'
   358  082D  346E               	retlw	110	;'n'
   359  082E  3474               	retlw	116	;'t'
   360  082F  3465               	retlw	101	;'e'
   361  0830  3472               	retlw	114	;'r'
   362  0831  3420               	retlw	32	;' '
   363  0832  3474               	retlw	116	;'t'
   364  0833  3468               	retlw	104	;'h'
   365  0834  3465               	retlw	101	;'e'
   366  0835  3420               	retlw	32	;' '
   367  0836  3443               	retlw	67	;'C'
   368  0837  346F               	retlw	111	;'o'
   369  0838  3469               	retlw	105	;'i'
   370  0839  346C               	retlw	108	;'l'
   371  083A  3420               	retlw	32	;' '
   372  083B  3453               	retlw	83	;'S'
   373  083C  3469               	retlw	105	;'i'
   374  083D  347A               	retlw	122	;'z'
   375  083E  3465               	retlw	101	;'e'
   376  083F  343A               	retlw	58	;':'
   377  0840  3400               	retlw	0
   378  0841                     STR_3:
   379  0841  3445               	retlw	69	;'E'
   380  0842  346E               	retlw	110	;'n'
   381  0843  3474               	retlw	116	;'t'
   382  0844  3465               	retlw	101	;'e'
   383  0845  3472               	retlw	114	;'r'
   384  0846  3420               	retlw	32	;' '
   385  0847  3474               	retlw	116	;'t'
   386  0848  3468               	retlw	104	;'h'
   387  0849  3465               	retlw	101	;'e'
   388  084A  3420               	retlw	32	;' '
   389  084B  344E               	retlw	78	;'N'
   390  084C  346F               	retlw	111	;'o'
   391  084D  342E               	retlw	46	;'.'
   392  084E  3420               	retlw	32	;' '
   393  084F  3454               	retlw	84	;'T'
   394  0850  3475               	retlw	117	;'u'
   395  0851  3472               	retlw	114	;'r'
   396  0852  346E               	retlw	110	;'n'
   397  0853  3473               	retlw	115	;'s'
   398  0854  343A               	retlw	58	;':'
   399  0855  3400               	retlw	0
   400  0856                     STR_15:
   401  0856  3420               	retlw	32	;' '
   402  0857  3420               	retlw	32	;' '
   403  0858  3420               	retlw	32	;' '
   404  0859  3420               	retlw	32	;' '
   405  085A  3420               	retlw	32	;' '
   406  085B  3420               	retlw	32	;' '
   407  085C  344D               	retlw	77	;'M'
   408  085D  3441               	retlw	65	;'A'
   409  085E  3443               	retlw	67	;'C'
   410  085F  3448               	retlw	72	;'H'
   411  0860  3449               	retlw	73	;'I'
   412  0861  344E               	retlw	78	;'N'
   413  0862  3445               	retlw	69	;'E'
   414  0863  3420               	retlw	32	;' '
   415  0864  3420               	retlw	32	;' '
   416  0865  3420               	retlw	32	;' '
   417  0866  3420               	retlw	32	;' '
   418  0867  3420               	retlw	32	;' '
   419  0868  3420               	retlw	32	;' '
   420  0869  3400               	retlw	0
   421  086A                     STR_13:
   422  086A  3421               	retlw	33	;'!'
   423  086B  3421               	retlw	33	;'!'
   424  086C  3420               	retlw	32	;' '
   425  086D  3420               	retlw	32	;' '
   426  086E  3420               	retlw	32	;' '
   427  086F  3420               	retlw	32	;' '
   428  0870  3457               	retlw	87	;'W'
   429  0871  3445               	retlw	69	;'E'
   430  0872  344C               	retlw	76	;'L'
   431  0873  3443               	retlw	67	;'C'
   432  0874  344F               	retlw	79	;'O'
   433  0875  344D               	retlw	77	;'M'
   434  0876  3445               	retlw	69	;'E'
   435  0877  3420               	retlw	32	;' '
   436  0878  3420               	retlw	32	;' '
   437  0879  3420               	retlw	32	;' '
   438  087A  3420               	retlw	32	;' '
   439  087B  3421               	retlw	33	;'!'
   440  087C  3421               	retlw	33	;'!'
   441  087D  3400               	retlw	0
   442  087E                     STR_14:
   443  087E  3454               	retlw	84	;'T'
   444  087F  3452               	retlw	82	;'R'
   445  0880  3441               	retlw	65	;'A'
   446  0881  344E               	retlw	78	;'N'
   447  0882  3453               	retlw	83	;'S'
   448  0883  3446               	retlw	70	;'F'
   449  0884  344F               	retlw	79	;'O'
   450  0885  3452               	retlw	82	;'R'
   451  0886  344D               	retlw	77	;'M'
   452  0887  3445               	retlw	69	;'E'
   453  0888  3452               	retlw	82	;'R'
   454  0889  3420               	retlw	32	;' '
   455  088A  3457               	retlw	87	;'W'
   456  088B  3449               	retlw	73	;'I'
   457  088C  344E               	retlw	78	;'N'
   458  088D  3444               	retlw	68	;'D'
   459  088E  3449               	retlw	73	;'I'
   460  088F  344E               	retlw	78	;'N'
   461  0890  3447               	retlw	71	;'G'
   462  0891  3400               	retlw	0
   463  0892                     STR_8:
   464  0892  3454               	retlw	84	;'T'
   465  0893  346F               	retlw	111	;'o'
   466  0894  3474               	retlw	116	;'t'
   467  0895  3461               	retlw	97	;'a'
   468  0896  346C               	retlw	108	;'l'
   469  0897  3420               	retlw	32	;' '
   470  0898  344E               	retlw	78	;'N'
   471  0899  346F               	retlw	111	;'o'
   472  089A  342E               	retlw	46	;'.'
   473  089B  3420               	retlw	32	;' '
   474  089C  3454               	retlw	84	;'T'
   475  089D  3475               	retlw	117	;'u'
   476  089E  3472               	retlw	114	;'r'
   477  089F  346E               	retlw	110	;'n'
   478  08A0  3473               	retlw	115	;'s'
   479  08A1  343A               	retlw	58	;':'
   480  08A2  3420               	retlw	32	;' '
   481  08A3  3400               	retlw	0
   482  08A4                     STR_11:
   483  08A4  3454               	retlw	84	;'T'
   484  08A5  346F               	retlw	111	;'o'
   485  08A6  3474               	retlw	116	;'t'
   486  08A7  3461               	retlw	97	;'a'
   487  08A8  346C               	retlw	108	;'l'
   488  08A9  3420               	retlw	32	;' '
   489  08AA  3454               	retlw	84	;'T'
   490  08AB  3469               	retlw	105	;'i'
   491  08AC  346D               	retlw	109	;'m'
   492  08AD  3465               	retlw	101	;'e'
   493  08AE  3420               	retlw	32	;' '
   494  08AF  3454               	retlw	84	;'T'
   495  08B0  3461               	retlw	97	;'a'
   496  08B1  346B               	retlw	107	;'k'
   497  08B2  3465               	retlw	101	;'e'
   498  08B3  346E               	retlw	110	;'n'
   499  08B4  343A               	retlw	58	;':'
   500  08B5  3400               	retlw	0
   501  08B6                     STR_10:
   502  08B6  3457               	retlw	87	;'W'
   503  08B7  3469               	retlw	105	;'i'
   504  08B8  346E               	retlw	110	;'n'
   505  08B9  3464               	retlw	100	;'d'
   506  08BA  3469               	retlw	105	;'i'
   507  08BB  346E               	retlw	110	;'n'
   508  08BC  3467               	retlw	103	;'g'
   509  08BD  3420               	retlw	32	;' '
   510  08BE  3443               	retlw	67	;'C'
   511  08BF  346F               	retlw	111	;'o'
   512  08C0  346D               	retlw	109	;'m'
   513  08C1  3470               	retlw	112	;'p'
   514  08C2  346C               	retlw	108	;'l'
   515  08C3  3465               	retlw	101	;'e'
   516  08C4  3474               	retlw	116	;'t'
   517  08C5  3465               	retlw	101	;'e'
   518  08C6  3473               	retlw	115	;'s'
   519  08C7  3400               	retlw	0
   520  08C8                     STR_5:
   521  08C8  3445               	retlw	69	;'E'
   522  08C9  346E               	retlw	110	;'n'
   523  08CA  3474               	retlw	116	;'t'
   524  08CB  3465               	retlw	101	;'e'
   525  08CC  3472               	retlw	114	;'r'
   526  08CD  3465               	retlw	101	;'e'
   527  08CE  3464               	retlw	100	;'d'
   528  08CF  3420               	retlw	32	;' '
   529  08D0  3444               	retlw	68	;'D'
   530  08D1  3461               	retlw	97	;'a'
   531  08D2  3474               	retlw	116	;'t'
   532  08D3  3461               	retlw	97	;'a'
   533  08D4  343A               	retlw	58	;':'
   534  08D5  3420               	retlw	32	;' '
   535  08D6  3400               	retlw	0
   536  08D7                     STR_9:
   537  08D7  3457               	retlw	87	;'W'
   538  08D8  3469               	retlw	105	;'i'
   539  08D9  346E               	retlw	110	;'n'
   540  08DA  3464               	retlw	100	;'d'
   541  08DB  3469               	retlw	105	;'i'
   542  08DC  346E               	retlw	110	;'n'
   543  08DD  3467               	retlw	103	;'g'
   544  08DE  3420               	retlw	32	;' '
   545  08DF  3453               	retlw	83	;'S'
   546  08E0  3474               	retlw	116	;'t'
   547  08E1  3461               	retlw	97	;'a'
   548  08E2  3472               	retlw	114	;'r'
   549  08E3  3474               	retlw	116	;'t'
   550  08E4  3473               	retlw	115	;'s'
   551  08E5  3400               	retlw	0
   552  08E6                     STR_6:
   553  08E6  3442               	retlw	66	;'B'
   554  08E7  346F               	retlw	111	;'o'
   555  08E8  3462               	retlw	98	;'b'
   556  08E9  3462               	retlw	98	;'b'
   557  08EA  3469               	retlw	105	;'i'
   558  08EB  346E               	retlw	110	;'n'
   559  08EC  3420               	retlw	32	;' '
   560  08ED  3453               	retlw	83	;'S'
   561  08EE  3469               	retlw	105	;'i'
   562  08EF  347A               	retlw	122	;'z'
   563  08F0  3465               	retlw	101	;'e'
   564  08F1  343A               	retlw	58	;':'
   565  08F2  3420               	retlw	32	;' '
   566  08F3  3400               	retlw	0
   567  08F4                     STR_7:
   568  08F4  3443               	retlw	67	;'C'
   569  08F5  346F               	retlw	111	;'o'
   570  08F6  3469               	retlw	105	;'i'
   571  08F7  346C               	retlw	108	;'l'
   572  08F8  3420               	retlw	32	;' '
   573  08F9  3453               	retlw	83	;'S'
   574  08FA  3469               	retlw	105	;'i'
   575  08FB  347A               	retlw	122	;'z'
   576  08FC  3465               	retlw	101	;'e'
   577  08FD  343A               	retlw	58	;':'
   578  08FE  3420               	retlw	32	;' '
   579  08FF  3400               	retlw	0
   580  0900                     STR_12:
   581  0900  3420               	retlw	32	;' '
   582  0901  3453               	retlw	83	;'S'
   583  0902  3465               	retlw	101	;'e'
   584  0903  3463               	retlw	99	;'c'
   585  0904  346F               	retlw	111	;'o'
   586  0905  346E               	retlw	110	;'n'
   587  0906  3464               	retlw	100	;'d'
   588  0907  3473               	retlw	115	;'s'
   589  0908  342E               	retlw	46	;'.'
   590  0909  3400               	retlw	0
   591                           
   592                           	psect	cinit
   593  07E0                     start_initialization:	
   594                           ; #config settings
   595                           
   596  07E0                     __initialization:
   597                           
   598                           ; Initialize objects allocated to BANK0
   599  07E0  1383               	bcf	3,7	;select IRP bank0
   600  07E1  3054               	movlw	low (__pdataBANK0+52)
   601  07E2  00FD               	movwf	btemp+-1
   602  07E3  3002               	movlw	high __pidataBANK0
   603  07E4  00FE               	movwf	btemp
   604  07E5  3088               	movlw	low __pidataBANK0
   605  07E6  00FF               	movwf	btemp+1
   606  07E7  3020               	movlw	low __pdataBANK0
   607  07E8  0084               	movwf	4
   608  07E9  120A  118A  221F  120A  118A  	fcall	init_ram0
   609                           
   610                           ; Clear objects allocated to BANK0
   611  07EE  01E2               	clrf	__pbssBANK0& (0+127)
   612  07EF  01E3               	clrf	(__pbssBANK0+1)& (0+127)
   613  07F0  01E4               	clrf	(__pbssBANK0+2)& (0+127)
   614  07F1  01E5               	clrf	(__pbssBANK0+3)& (0+127)
   615  07F2  01E6               	clrf	(__pbssBANK0+4)& (0+127)
   616  07F3  01E7               	clrf	(__pbssBANK0+5)& (0+127)
   617  07F4  01E8               	clrf	(__pbssBANK0+6)& (0+127)
   618  07F5  01E9               	clrf	(__pbssBANK0+7)& (0+127)
   619  07F6  01EA               	clrf	(__pbssBANK0+8)& (0+127)
   620  07F7  01EB               	clrf	(__pbssBANK0+9)& (0+127)
   621  07F8  01EC               	clrf	(__pbssBANK0+10)& (0+127)
   622  07F9  01ED               	clrf	(__pbssBANK0+11)& (0+127)
   623                           
   624                           ; Clear objects allocated to COMMON
   625  07FA  01FC               	clrf	__pbssCOMMON& (0+127)
   626  07FB  01FD               	clrf	(__pbssCOMMON+1)& (0+127)
   627  07FC                     end_of_initialization:	
   628                           ;End of C runtime variable initialization code
   629                           
   630  07FC                     __end_of__initialization:
   631  07FC  0183               	clrf	3
   632  07FD  120A  118A  2AF1   	ljmp	_main	;jump to C main() function
   633                           
   634                           	psect	bssCOMMON
   635  007C                     __pbssCOMMON:
   636  007C                     _c1:
   637  007C                     	ds	1
   638  007D                     _b1:
   639  007D                     	ds	1
   640                           
   641                           	psect	bssBANK0
   642  0062                     __pbssBANK0:
   643  0062                     _errno:
   644  0062                     	ds	2
   645  0064                     _cs:
   646  0064                     	ds	1
   647  0065                     _bs:
   648  0065                     	ds	1
   649  0066                     _n2:
   650  0066                     	ds	1
   651  0067                     _n1:
   652  0067                     	ds	1
   653  0068                     _c2:
   654  0068                     	ds	1
   655  0069                     _b2:
   656  0069                     	ds	1
   657  006A                     _turn_time:
   658  006A                     	ds	1
   659  006B                     _no_turns:
   660  006B                     	ds	1
   661  006C                     _colloc:
   662  006C                     	ds	1
   663  006D                     _rowloc:
   664  006D                     	ds	1
   665                           
   666                           	psect	dataBANK0
   667  0020                     __pdataBANK0:
   668  0020                     _keypad:
   669  0020                     	ds	16
   670  0030                     lookuptable@F1010:
   671  0030                     	ds	4
   672  0034                     lookuptable@F1008:
   673  0034                     	ds	4
   674  0038                     lookuptable@F1006:
   675  0038                     	ds	4
   676  003C                     lookuptable@F1004:
   677  003C                     	ds	4
   678  0040                     lookuptable@F1002:
   679  0040                     	ds	4
   680  0044                     lookuptable@F1000:
   681  0044                     	ds	4
   682  0048                     lookuptable@F998:
   683  0048                     	ds	4
   684  004C                     lookuptable@F996:
   685  004C                     	ds	4
   686  0050                     lookuptable@F994:
   687  0050                     	ds	4
   688                           
   689                           	psect	inittext
   690  021B                     init_fetch0:	
   691                           ;	Called with low address in FSR and high address in W
   692                           
   693  021B  087E               	movf	btemp,w
   694  021C  008A               	movwf	10
   695  021D  087F               	movf	btemp+1,w
   696  021E  0082               	movwf	2
   697  021F                     init_ram0:	
   698                           ;Called with:
   699                           ;	high address of idata address in btemp 
   700                           ;	low address of idata address in btemp+1 
   701                           ;	low address of data in FSR
   702                           ;	high address + 1 of data in btemp-1
   703                           
   704  021F  120A  118A  221B  120A  118A  	fcall	init_fetch0
   705  0224  0080               	movwf	0
   706  0225  0A84               	incf	4,f
   707  0226  0804               	movf	4,w
   708  0227  067D               	xorwf	btemp+-1,w
   709  0228  1903               	btfsc	3,2
   710  0229  3400               	retlw	0
   711  022A  0AFF               	incf	btemp+1,f
   712  022B  1903               	btfsc	3,2
   713  022C  0AFE               	incf	btemp,f
   714  022D  2A1F               	goto	init_ram0
   715                           
   716                           	psect	cstackCOMMON
   717  0070                     __pcstackCOMMON:
   718  0070                     ?_LCD_init:
   719  0070                     ?_keyinit:	
   720                           ; 1 bytes @ 0x0
   721                           
   722  0070                     ??_keyinit:	
   723                           ; 1 bytes @ 0x0
   724                           
   725  0070                     ?_fetch_sizes:	
   726                           ; 1 bytes @ 0x0
   727                           
   728  0070                     ?_attach_sizes:	
   729                           ; 1 bytes @ 0x0
   730                           
   731  0070                     ?_LCD_cmd:	
   732                           ; 1 bytes @ 0x0
   733                           
   734  0070                     ??_LCD_cmd:	
   735                           ; 1 bytes @ 0x0
   736                           
   737  0070                     ?_main:	
   738                           ; 1 bytes @ 0x0
   739                           
   740  0070                     ?_LCD_dat:	
   741                           ; 1 bytes @ 0x0
   742                           
   743  0070                     ??_LCD_dat:	
   744                           ; 1 bytes @ 0x0
   745                           
   746  0070                     ?_key:	
   747                           ; 1 bytes @ 0x0
   748                           
   749  0070                     ??_key:	
   750                           ; 1 bytes @ 0x0
   751                           
   752  0070                     ?___bmul:	
   753                           ; 1 bytes @ 0x0
   754                           
   755  0070                     ?___lwdiv:	
   756                           ; 1 bytes @ 0x0
   757                           
   758  0070                     ?___lwmod:	
   759                           ; 2 bytes @ 0x0
   760                           
   761  0070                     ___bmul@multiplicand:	
   762                           ; 2 bytes @ 0x0
   763                           
   764  0070                     ___lwdiv@divisor:	
   765                           ; 1 bytes @ 0x0
   766                           
   767  0070                     ___lwmod@divisor:	
   768                           ; 2 bytes @ 0x0
   769                           
   770                           
   771                           ; 2 bytes @ 0x0
   772  0070                     	ds	1
   773  0071                     ??___bmul:
   774                           
   775                           ; 1 bytes @ 0x1
   776  0071                     	ds	1
   777  0072                     LCD_cmd@cmd:
   778  0072                     LCD_dat@data:	
   779                           ; 1 bytes @ 0x2
   780                           
   781  0072                     ___bmul@product:	
   782                           ; 1 bytes @ 0x2
   783                           
   784  0072                     ___lwdiv@dividend:	
   785                           ; 1 bytes @ 0x2
   786                           
   787  0072                     ___lwmod@dividend:	
   788                           ; 2 bytes @ 0x2
   789                           
   790                           
   791                           ; 2 bytes @ 0x2
   792  0072                     	ds	1
   793  0073                     ??_LCD_init:
   794  0073                     ?_show:	
   795                           ; 1 bytes @ 0x3
   796                           
   797  0073                     ___bmul@multiplier:	
   798                           ; 1 bytes @ 0x3
   799                           
   800  0073                     show@s:	
   801                           ; 1 bytes @ 0x3
   802                           
   803                           
   804                           ; 2 bytes @ 0x3
   805  0073                     	ds	1
   806  0074                     ??_attach_sizes:
   807  0074                     ??___lwdiv:	
   808                           ; 1 bytes @ 0x4
   809                           
   810  0074                     ??___lwmod:	
   811                           ; 1 bytes @ 0x4
   812                           
   813                           
   814                           ; 1 bytes @ 0x4
   815  0074                     	ds	1
   816  0075                     ??_fetch_sizes:
   817  0075                     ??_show:	
   818                           ; 1 bytes @ 0x5
   819                           
   820  0075                     ___lwmod@counter:	
   821                           ; 1 bytes @ 0x5
   822                           
   823  0075                     ___lwdiv@quotient:	
   824                           ; 1 bytes @ 0x5
   825                           
   826                           
   827                           ; 2 bytes @ 0x5
   828  0075                     	ds	1
   829  0076                     attach_sizes@er:
   830                           
   831                           ; 1 bytes @ 0x6
   832  0076                     	ds	1
   833  0077                     attach_sizes@n3:
   834  0077                     ___lwdiv@counter:	
   835                           ; 1 bytes @ 0x7
   836                           
   837                           
   838                           ; 1 bytes @ 0x7
   839  0077                     	ds	1
   840  0078                     ?_LCD_num:
   841  0078                     attach_sizes@n4:	
   842                           ; 1 bytes @ 0x8
   843                           
   844  0078                     LCD_num@val:	
   845                           ; 1 bytes @ 0x8
   846                           
   847                           
   848                           ; 2 bytes @ 0x8
   849  0078                     	ds	2
   850  007A                     ??_LCD_num:
   851  007A                     ??_main:	
   852                           ; 1 bytes @ 0xA
   853                           
   854                           
   855                           ; 1 bytes @ 0xA
   856  007A                     	ds	1
   857  007B                     main@nt:
   858                           
   859                           ; 1 bytes @ 0xB
   860  007B                     	ds	1
   861                           
   862                           	psect	cstackBANK0
   863  0054                     __pcstackBANK0:
   864  0054                     LCD_num@digit4:
   865                           
   866                           ; 2 bytes @ 0x0
   867  0054                     	ds	2
   868  0056                     LCD_num@result:
   869                           
   870                           ; 2 bytes @ 0x2
   871  0056                     	ds	2
   872  0058                     LCD_num@digit3:
   873                           
   874                           ; 2 bytes @ 0x4
   875  0058                     	ds	2
   876  005A                     LCD_num@digit1:
   877                           
   878                           ; 2 bytes @ 0x6
   879  005A                     	ds	2
   880  005C                     LCD_num@digit2:
   881                           
   882                           ; 2 bytes @ 0x8
   883  005C                     	ds	2
   884  005E                     LCD_num@result1:
   885                           
   886                           ; 2 bytes @ 0xA
   887  005E                     	ds	2
   888  0060                     LCD_num@remainder:
   889                           
   890                           ; 2 bytes @ 0xC
   891  0060                     	ds	2
   892                           
   893                           	psect	maintext
   894  02F1                     __pmaintext:	
   895 ;;
   896 ;;Main: autosize = 0, tempsize = 1, incstack = 0, save=0
   897 ;;
   898 ;; *************** function _main *****************
   899 ;; Defined at:
   900 ;;		line 61 in file "main.c"
   901 ;; Parameters:    Size  Location     Type
   902 ;;		None
   903 ;; Auto vars:     Size  Location     Type
   904 ;;  winding_time    2    0        unsigned int 
   905 ;;  nt              1   11[COMMON] unsigned char 
   906 ;; Return value:  Size  Location     Type
   907 ;;                  1    wreg      void 
   908 ;; Registers used:
   909 ;;		wreg, fsr0l, fsr0h, status,2, status,0, btemp+1, pclath, cstack
   910 ;; Tracked objects:
   911 ;;		On entry : B00/0
   912 ;;		On exit  : 0/0
   913 ;;		Unchanged: 0/0
   914 ;; Data sizes:     COMMON   BANK0   BANK1   BANK3   BANK2
   915 ;;      Params:         0       0       0       0       0
   916 ;;      Locals:         1       0       0       0       0
   917 ;;      Temps:          1       0       0       0       0
   918 ;;      Totals:         2       0       0       0       0
   919 ;;Total ram usage:        2 bytes
   920 ;; Hardware stack levels required when called: 3
   921 ;; This function calls:
   922 ;;		_LCD_cmd
   923 ;;		_LCD_init
   924 ;;		_LCD_num
   925 ;;		_attach_sizes
   926 ;;		_fetch_sizes
   927 ;;		_keyinit
   928 ;; This function is called by:
   929 ;;		Startup code after reset
   930 ;; This function uses a non-reentrant model
   931 ;;
   932                           
   933                           
   934                           ;psect for function _main
   935  02F1                     _main:
   936  02F1                     l1608:	
   937                           ;incstack = 0
   938                           ; Regs used in _main: [wreg-fsr0h+status,2+status,0+btemp+1+pclath+cstack]
   939                           
   940                           
   941                           ;main.c: 63:     TRISB=0;
   942  02F1  1683               	bsf	3,5	;RP0=1, select bank1
   943  02F2  1303               	bcf	3,6	;RP1=0, select bank1
   944  02F3  0186               	clrf	6	;volatile
   945                           
   946                           ;main.c: 64:     TRISC=0;
   947  02F4  0187               	clrf	7	;volatile
   948  02F5                     l1610:
   949                           
   950                           ;main.c: 65:     LCD_init();
   951  02F5  120A  118A  2243  120A  118A  	fcall	_LCD_init
   952  02FA                     l1612:
   953                           
   954                           ;main.c: 67:     keyinit();
   955  02FA  120A  118A  2213  120A  118A  	fcall	_keyinit
   956                           
   957                           ;main.c: 69:     unsigned char nt = 0;
   958  02FF  01FB               	clrf	main@nt
   959  0300                     l1614:
   960                           
   961                           ;main.c: 72:     {;main.c: 73:         fetch_sizes();
   962  0300  120A  118A  243F  120A  118A  	fcall	_fetch_sizes
   963  0305                     l1616:
   964                           
   965                           ;main.c: 75:         nt = attach_sizes();
   966  0305  120A  118A  22BC  120A  118A  	fcall	_attach_sizes
   967  030A  00FA               	movwf	??_main
   968  030B  087A               	movf	??_main,w
   969  030C  00FB               	movwf	main@nt
   970  030D                     l1618:
   971                           
   972                           ;main.c: 76:         LCD_cmd(0x01);
   973  030D  3001               	movlw	1
   974  030E  120A  118A  23A7  120A  118A  	fcall	_LCD_cmd
   975  0313                     l1620:
   976                           
   977                           ;main.c: 77:         LCD_cmd(0x80);
   978  0313  3080               	movlw	128
   979  0314  120A  118A  23A7  120A  118A  	fcall	_LCD_cmd
   980  0319                     l1622:
   981                           
   982                           ;main.c: 78:         LCD_num(nt-16);
   983  0319  087B               	movf	main@nt,w
   984  031A  3EF0               	addlw	240
   985  031B  00F8               	movwf	LCD_num@val
   986  031C  30FF               	movlw	255
   987  031D  1803               	skipnc
   988  031E  3000               	movlw	0
   989  031F  00F9               	movwf	LCD_num@val+1
   990  0320  120A  118A  264E  120A  118A  	fcall	_LCD_num
   991  0325                     l84:	
   992                           ;main.c: 79:         while(1);
   993                           
   994  0325                     l85:
   995  0325  2B25               	goto	l84
   996  0326  120A  118A  2800   	ljmp	start
   997  0329                     __end_of_main:
   998                           
   999                           	psect	text1
  1000  0213                     __ptext1:	
  1001 ;; *************** function _keyinit *****************
  1002 ;; Defined at:
  1003 ;;		line 146 in file "main.c"
  1004 ;; Parameters:    Size  Location     Type
  1005 ;;		None
  1006 ;; Auto vars:     Size  Location     Type
  1007 ;;		None
  1008 ;; Return value:  Size  Location     Type
  1009 ;;                  1    wreg      void 
  1010 ;; Registers used:
  1011 ;;		wreg, status,2
  1012 ;; Tracked objects:
  1013 ;;		On entry : 0/0
  1014 ;;		On exit  : 0/0
  1015 ;;		Unchanged: 0/0
  1016 ;; Data sizes:     COMMON   BANK0   BANK1   BANK3   BANK2
  1017 ;;      Params:         0       0       0       0       0
  1018 ;;      Locals:         0       0       0       0       0
  1019 ;;      Temps:          0       0       0       0       0
  1020 ;;      Totals:         0       0       0       0       0
  1021 ;;Total ram usage:        0 bytes
  1022 ;; Hardware stack levels used: 1
  1023 ;; This function calls:
  1024 ;;		Nothing
  1025 ;; This function is called by:
  1026 ;;		_main
  1027 ;; This function uses a non-reentrant model
  1028 ;;
  1029                           
  1030                           
  1031                           ;psect for function _keyinit
  1032  0213                     _keyinit:
  1033  0213                     l1042:	
  1034                           ;incstack = 0
  1035                           ; Regs used in _keyinit: [wreg+status,2]
  1036                           
  1037                           
  1038                           ;main.c: 148:     TRISD=0XF0;
  1039  0213  30F0               	movlw	240
  1040  0214  1683               	bsf	3,5	;RP0=1, select bank1
  1041  0215  1303               	bcf	3,6	;RP1=0, select bank1
  1042  0216  0088               	movwf	8	;volatile
  1043  0217                     l1044:
  1044                           
  1045                           ;main.c: 149:     PORTD=0X00;
  1046  0217  1283               	bcf	3,5	;RP0=0, select bank0
  1047  0218  1303               	bcf	3,6	;RP1=0, select bank0
  1048  0219  0188               	clrf	8	;volatile
  1049  021A                     l107:
  1050  021A  0008               	return
  1051  021B                     __end_of_keyinit:
  1052                           
  1053                           	psect	text2
  1054  043F                     __ptext2:	
  1055 ;; *************** function _fetch_sizes *****************
  1056 ;; Defined at:
  1057 ;;		line 206 in file "main.c"
  1058 ;; Parameters:    Size  Location     Type
  1059 ;;		None
  1060 ;; Auto vars:     Size  Location     Type
  1061 ;;		None
  1062 ;; Return value:  Size  Location     Type
  1063 ;;                  1    wreg      void 
  1064 ;; Registers used:
  1065 ;;		wreg, fsr0l, fsr0h, status,2, status,0, btemp+1, pclath, cstack
  1066 ;; Tracked objects:
  1067 ;;		On entry : 0/0
  1068 ;;		On exit  : 0/0
  1069 ;;		Unchanged: 0/0
  1070 ;; Data sizes:     COMMON   BANK0   BANK1   BANK3   BANK2
  1071 ;;      Params:         0       0       0       0       0
  1072 ;;      Locals:         0       0       0       0       0
  1073 ;;      Temps:          3       0       0       0       0
  1074 ;;      Totals:         3       0       0       0       0
  1075 ;;Total ram usage:        3 bytes
  1076 ;; Hardware stack levels used: 1
  1077 ;; Hardware stack levels required when called: 2
  1078 ;; This function calls:
  1079 ;;		_LCD_cmd
  1080 ;;		_LCD_dat
  1081 ;;		_key
  1082 ;;		_show
  1083 ;; This function is called by:
  1084 ;;		_main
  1085 ;; This function uses a non-reentrant model
  1086 ;;
  1087                           
  1088                           
  1089                           ;psect for function _fetch_sizes
  1090  043F                     _fetch_sizes:
  1091  043F                     l1498:	
  1092                           ;incstack = 0
  1093                           ; Regs used in _fetch_sizes: [wreg-fsr0h+status,2+status,0+btemp+1+pclath+cstack]
  1094                           
  1095                           
  1096                           ;main.c: 208:     LCD_cmd(0x01);
  1097  043F  3001               	movlw	1
  1098  0440  120A  118A  23A7  120A  118A  	fcall	_LCD_cmd
  1099                           
  1100                           ;main.c: 209:     LCD_cmd(0x80);
  1101  0445  3080               	movlw	128
  1102  0446  120A  118A  23A7  120A  118A  	fcall	_LCD_cmd
  1103  044B                     l1500:
  1104                           
  1105                           ;main.c: 210:     show("Enter the Bobbin Size:");
  1106  044B  3000               	movlw	low (STR_1| (0+32768))
  1107  044C  00F3               	movwf	show@s
  1108  044D  3088               	movlw	high (STR_1| (0+32768))
  1109  044E  00F4               	movwf	show@s+1
  1110  044F  120A  118A  2262  120A  118A  	fcall	_show
  1111  0454                     l1502:
  1112                           
  1113                           ;main.c: 211:         b1=key();
  1114  0454  120A  118A  2502  120A  118A  	fcall	_key
  1115  0459  00F5               	movwf	??_fetch_sizes
  1116  045A  0875               	movf	??_fetch_sizes,w
  1117  045B  00FD               	movwf	_b1
  1118  045C                     l1504:
  1119                           
  1120                           ;main.c: 212:         LCD_dat(b1);
  1121  045C  087D               	movf	_b1,w
  1122  045D  120A  118A  23F3  120A  118A  	fcall	_LCD_dat
  1123  0462                     l1506:
  1124                           
  1125                           ;main.c: 213:         b2=key();
  1126  0462  120A  118A  2502  120A  118A  	fcall	_key
  1127  0467  00F5               	movwf	??_fetch_sizes
  1128  0468  0875               	movf	??_fetch_sizes,w
  1129  0469  1283               	bcf	3,5	;RP0=0, select bank0
  1130  046A  1303               	bcf	3,6	;RP1=0, select bank0
  1131  046B  00E9               	movwf	_b2
  1132  046C                     l1508:
  1133                           
  1134                           ;main.c: 214:         LCD_dat(b2);
  1135  046C  0869               	movf	_b2,w
  1136  046D  120A  118A  23F3  120A  118A  	fcall	_LCD_dat
  1137  0472                     l1510:
  1138                           
  1139                           ;main.c: 215:     _delay((unsigned long)((100)*(20000000/4000.0)));
  1140  0472  3003               	movlw	3
  1141  0473  00F7               	movwf	??_fetch_sizes+2
  1142  0474  308A               	movlw	138
  1143  0475  00F6               	movwf	??_fetch_sizes+1
  1144  0476  3055               	movlw	85
  1145  0477  00F5               	movwf	??_fetch_sizes
  1146  0478                     u1867:
  1147  0478  0BF5               	decfsz	??_fetch_sizes,f
  1148  0479  2C78               	goto	u1867
  1149  047A  0BF6               	decfsz	??_fetch_sizes+1,f
  1150  047B  2C78               	goto	u1867
  1151  047C  0BF7               	decfsz	??_fetch_sizes+2,f
  1152  047D  2C78               	goto	u1867
  1153  047E  2C7F               	nop2
  1154  047F                     l1512:
  1155                           
  1156                           ;main.c: 217:     LCD_cmd(0x01);
  1157  047F  3001               	movlw	1
  1158  0480  120A  118A  23A7  120A  118A  	fcall	_LCD_cmd
  1159  0485                     l1514:
  1160                           
  1161                           ;main.c: 218:     LCD_cmd(0x80);
  1162  0485  3080               	movlw	128
  1163  0486  120A  118A  23A7  120A  118A  	fcall	_LCD_cmd
  1164  048B                     l1516:
  1165                           
  1166                           ;main.c: 219:     show("Enter the Coil Size:");
  1167  048B  302C               	movlw	low (STR_2| (0+32768))
  1168  048C  00F3               	movwf	show@s
  1169  048D  3088               	movlw	high (STR_2| (0+32768))
  1170  048E  00F4               	movwf	show@s+1
  1171  048F  120A  118A  2262  120A  118A  	fcall	_show
  1172  0494                     l1518:
  1173                           
  1174                           ;main.c: 220:         c1=key();
  1175  0494  120A  118A  2502  120A  118A  	fcall	_key
  1176  0499  00F5               	movwf	??_fetch_sizes
  1177  049A  0875               	movf	??_fetch_sizes,w
  1178  049B  00FC               	movwf	_c1
  1179  049C                     l1520:
  1180                           
  1181                           ;main.c: 221:         LCD_dat(c1);
  1182  049C  087C               	movf	_c1,w
  1183  049D  120A  118A  23F3  120A  118A  	fcall	_LCD_dat
  1184  04A2                     l1522:
  1185                           
  1186                           ;main.c: 222:         c2=key();
  1187  04A2  120A  118A  2502  120A  118A  	fcall	_key
  1188  04A7  00F5               	movwf	??_fetch_sizes
  1189  04A8  0875               	movf	??_fetch_sizes,w
  1190  04A9  1283               	bcf	3,5	;RP0=0, select bank0
  1191  04AA  1303               	bcf	3,6	;RP1=0, select bank0
  1192  04AB  00E8               	movwf	_c2
  1193  04AC                     l1524:
  1194                           
  1195                           ;main.c: 223:         LCD_dat(c2);
  1196  04AC  0868               	movf	_c2,w
  1197  04AD  120A  118A  23F3  120A  118A  	fcall	_LCD_dat
  1198  04B2                     l1526:
  1199                           
  1200                           ;main.c: 224:     _delay((unsigned long)((100)*(20000000/4000.0)));
  1201  04B2  3003               	movlw	3
  1202  04B3  00F7               	movwf	??_fetch_sizes+2
  1203  04B4  308A               	movlw	138
  1204  04B5  00F6               	movwf	??_fetch_sizes+1
  1205  04B6  3055               	movlw	85
  1206  04B7  00F5               	movwf	??_fetch_sizes
  1207  04B8                     u1877:
  1208  04B8  0BF5               	decfsz	??_fetch_sizes,f
  1209  04B9  2CB8               	goto	u1877
  1210  04BA  0BF6               	decfsz	??_fetch_sizes+1,f
  1211  04BB  2CB8               	goto	u1877
  1212  04BC  0BF7               	decfsz	??_fetch_sizes+2,f
  1213  04BD  2CB8               	goto	u1877
  1214  04BE  2CBF               	nop2
  1215                           
  1216                           ;main.c: 226:     LCD_cmd(0x01);
  1217  04BF  3001               	movlw	1
  1218  04C0  120A  118A  23A7  120A  118A  	fcall	_LCD_cmd
  1219                           
  1220                           ;main.c: 227:     LCD_cmd(0x80);
  1221  04C5  3080               	movlw	128
  1222  04C6  120A  118A  23A7  120A  118A  	fcall	_LCD_cmd
  1223  04CB                     l1528:
  1224                           
  1225                           ;main.c: 228:     show("Enter the No. Turns:");
  1226  04CB  3041               	movlw	low (STR_3| (0+32768))
  1227  04CC  00F3               	movwf	show@s
  1228  04CD  3088               	movlw	high (STR_3| (0+32768))
  1229  04CE  00F4               	movwf	show@s+1
  1230  04CF  120A  118A  2262  120A  118A  	fcall	_show
  1231  04D4                     l1530:
  1232                           
  1233                           ;main.c: 229:         n1=key();
  1234  04D4  120A  118A  2502  120A  118A  	fcall	_key
  1235  04D9  00F5               	movwf	??_fetch_sizes
  1236  04DA  0875               	movf	??_fetch_sizes,w
  1237  04DB  1283               	bcf	3,5	;RP0=0, select bank0
  1238  04DC  1303               	bcf	3,6	;RP1=0, select bank0
  1239  04DD  00E7               	movwf	_n1
  1240  04DE                     l1532:
  1241                           
  1242                           ;main.c: 230:         LCD_dat(n1);
  1243  04DE  0867               	movf	_n1,w
  1244  04DF  120A  118A  23F3  120A  118A  	fcall	_LCD_dat
  1245  04E4                     l1534:
  1246                           
  1247                           ;main.c: 231:         n2=key();
  1248  04E4  120A  118A  2502  120A  118A  	fcall	_key
  1249  04E9  00F5               	movwf	??_fetch_sizes
  1250  04EA  0875               	movf	??_fetch_sizes,w
  1251  04EB  1283               	bcf	3,5	;RP0=0, select bank0
  1252  04EC  1303               	bcf	3,6	;RP1=0, select bank0
  1253  04ED  00E6               	movwf	_n2
  1254  04EE                     l1536:
  1255                           
  1256                           ;main.c: 232:         LCD_dat(n2);
  1257  04EE  0866               	movf	_n2,w
  1258  04EF  120A  118A  23F3  120A  118A  	fcall	_LCD_dat
  1259  04F4                     l1538:
  1260                           
  1261                           ;main.c: 233:     _delay((unsigned long)((100)*(20000000/4000.0)));
  1262  04F4  3003               	movlw	3
  1263  04F5  00F7               	movwf	??_fetch_sizes+2
  1264  04F6  308A               	movlw	138
  1265  04F7  00F6               	movwf	??_fetch_sizes+1
  1266  04F8  3055               	movlw	85
  1267  04F9  00F5               	movwf	??_fetch_sizes
  1268  04FA                     u1887:
  1269  04FA  0BF5               	decfsz	??_fetch_sizes,f
  1270  04FB  2CFA               	goto	u1887
  1271  04FC  0BF6               	decfsz	??_fetch_sizes+1,f
  1272  04FD  2CFA               	goto	u1887
  1273  04FE  0BF7               	decfsz	??_fetch_sizes+2,f
  1274  04FF  2CFA               	goto	u1887
  1275  0500  2D01               	nop2
  1276  0501                     l143:
  1277  0501  0008               	return
  1278  0502                     __end_of_fetch_sizes:
  1279                           
  1280                           	psect	text3
  1281  0262                     __ptext3:	
  1282 ;; *************** function _show *****************
  1283 ;; Defined at:
  1284 ;;		line 138 in file "main.c"
  1285 ;; Parameters:    Size  Location     Type
  1286 ;;  s               2    3[COMMON] PTR unsigned char 
  1287 ;;		 -> STR_15(20), STR_14(20), STR_13(20), STR_12(10), 
  1288 ;;		 -> STR_11(18), STR_10(18), STR_9(15), STR_8(18), 
  1289 ;;		 -> STR_7(12), STR_6(14), STR_5(15), STR_4(21), 
  1290 ;;		 -> STR_3(21), STR_2(21), STR_1(23), 
  1291 ;; Auto vars:     Size  Location     Type
  1292 ;;		None
  1293 ;; Return value:  Size  Location     Type
  1294 ;;                  1    wreg      void 
  1295 ;; Registers used:
  1296 ;;		wreg, fsr0l, fsr0h, status,2, status,0, btemp+1, pclath, cstack
  1297 ;; Tracked objects:
  1298 ;;		On entry : 0/0
  1299 ;;		On exit  : 0/0
  1300 ;;		Unchanged: 0/0
  1301 ;; Data sizes:     COMMON   BANK0   BANK1   BANK3   BANK2
  1302 ;;      Params:         2       0       0       0       0
  1303 ;;      Locals:         0       0       0       0       0
  1304 ;;      Temps:          0       0       0       0       0
  1305 ;;      Totals:         2       0       0       0       0
  1306 ;;Total ram usage:        2 bytes
  1307 ;; Hardware stack levels used: 1
  1308 ;; Hardware stack levels required when called: 1
  1309 ;; This function calls:
  1310 ;;		_LCD_dat
  1311 ;; This function is called by:
  1312 ;;		_fetch_sizes
  1313 ;;		_lookuptable
  1314 ;;		_display_data
  1315 ;;		_rotation
  1316 ;;		_result_display
  1317 ;;		_welcome_text
  1318 ;; This function uses a non-reentrant model
  1319 ;;
  1320                           
  1321                           
  1322                           ;psect for function _show
  1323  0262                     _show:
  1324  0262                     l1332:	
  1325                           ;incstack = 0
  1326                           ; Regs used in _show: [wreg-fsr0h+status,2+status,0+btemp+1+pclath+cstack]
  1327                           
  1328                           
  1329                           ;main.c: 138: void show(unsigned char *s);main.c: 139: {;main.c: 140:  while(*s)
  1330  0262  2A77               	goto	l1338
  1331  0263                     l1334:
  1332                           
  1333                           ;main.c: 141:     {;main.c: 142:         LCD_dat(*s++);
  1334  0263  0874               	movf	show@s+1,w
  1335  0264  00FF               	movwf	btemp+1
  1336  0265  0873               	movf	show@s,w
  1337  0266  0084               	movwf	4
  1338  0267  120A  118A  2003  120A  118A  	fcall	stringtab
  1339  026C  120A  118A  23F3  120A  118A  	fcall	_LCD_dat
  1340  0271                     l1336:
  1341  0271  3001               	movlw	1
  1342  0272  07F3               	addwf	show@s,f
  1343  0273  1803               	skipnc
  1344  0274  0AF4               	incf	show@s+1,f
  1345  0275  3000               	movlw	0
  1346  0276  07F4               	addwf	show@s+1,f
  1347  0277                     l1338:
  1348                           
  1349                           ;main.c: 140:  while(*s)
  1350  0277  0874               	movf	show@s+1,w
  1351  0278  1283               	bcf	3,5	;RP0=0, select bank0
  1352  0279  1303               	bcf	3,6	;RP1=0, select bank0
  1353  027A  00FF               	movwf	btemp+1
  1354  027B  0873               	movf	show@s,w
  1355  027C  0084               	movwf	4
  1356  027D  120A  118A  2003  120A  118A  	fcall	stringtab
  1357  0282  3A00               	xorlw	0
  1358  0283  1D03               	skipz
  1359  0284  2A86               	goto	u961
  1360  0285  2A87               	goto	u960
  1361  0286                     u961:
  1362  0286  2A63               	goto	l1334
  1363  0287                     u960:
  1364  0287                     l104:
  1365  0287  0008               	return
  1366  0288                     __end_of_show:
  1367                           
  1368                           	psect	text4
  1369  0502                     __ptext4:	
  1370 ;; *************** function _key *****************
  1371 ;; Defined at:
  1372 ;;		line 152 in file "main.c"
  1373 ;; Parameters:    Size  Location     Type
  1374 ;;		None
  1375 ;; Auto vars:     Size  Location     Type
  1376 ;;		None
  1377 ;; Return value:  Size  Location     Type
  1378 ;;                  1    wreg      unsigned char 
  1379 ;; Registers used:
  1380 ;;		wreg, fsr0l, fsr0h, status,2, status,0
  1381 ;; Tracked objects:
  1382 ;;		On entry : 0/0
  1383 ;;		On exit  : 0/0
  1384 ;;		Unchanged: 0/0
  1385 ;; Data sizes:     COMMON   BANK0   BANK1   BANK3   BANK2
  1386 ;;      Params:         0       0       0       0       0
  1387 ;;      Locals:         0       0       0       0       0
  1388 ;;      Temps:          3       0       0       0       0
  1389 ;;      Totals:         3       0       0       0       0
  1390 ;;Total ram usage:        3 bytes
  1391 ;; Hardware stack levels used: 1
  1392 ;; This function calls:
  1393 ;;		Nothing
  1394 ;; This function is called by:
  1395 ;;		_fetch_sizes
  1396 ;; This function uses a non-reentrant model
  1397 ;;
  1398                           
  1399                           
  1400                           ;psect for function _key
  1401  0502                     _key:
  1402  0502                     l1340:	
  1403                           ;incstack = 0
  1404                           ; Regs used in _key: [wreg-fsr0h+status,2+status,0]
  1405                           
  1406                           
  1407                           ;main.c: 154:     PORTD=0X00;
  1408  0502  1283               	bcf	3,5	;RP0=0, select bank0
  1409  0503  1303               	bcf	3,6	;RP1=0, select bank0
  1410  0504  0188               	clrf	8	;volatile
  1411  0505                     l110:	
  1412                           ;main.c: 155:     while(RD4&&RD5&&RD6&&RD7);
  1413                           
  1414  0505  1E08               	btfss	8,4	;volatile
  1415  0506  2D08               	goto	u971
  1416  0507  2D09               	goto	u970
  1417  0508                     u971:
  1418  0508  2DCC               	goto	l115
  1419  0509                     u970:
  1420  0509                     l1342:
  1421  0509  1E88               	btfss	8,5	;volatile
  1422  050A  2D0C               	goto	u981
  1423  050B  2D0D               	goto	u980
  1424  050C                     u981:
  1425  050C  2DCC               	goto	l115
  1426  050D                     u980:
  1427  050D                     l1344:
  1428  050D  1F08               	btfss	8,6	;volatile
  1429  050E  2D10               	goto	u991
  1430  050F  2D11               	goto	u990
  1431  0510                     u991:
  1432  0510  2DCC               	goto	l115
  1433  0511                     u990:
  1434  0511                     l1346:
  1435  0511  1B88               	btfsc	8,7	;volatile
  1436  0512  2D14               	goto	u1001
  1437  0513  2D15               	goto	u1000
  1438  0514                     u1001:
  1439  0514  2D05               	goto	l110
  1440  0515                     u1000:
  1441  0515  2DCC               	goto	l115
  1442  0516                     l1348:
  1443                           
  1444                           ;main.c: 158:             {;main.c: 159:             _delay((unsigned long)((100)*(20000
      +                          000/4000.0)));
  1445  0516  3003               	movlw	3
  1446  0517  00F2               	movwf	??_key+2
  1447  0518  308A               	movlw	138
  1448  0519  00F1               	movwf	??_key+1
  1449  051A  3055               	movlw	85
  1450  051B  00F0               	movwf	??_key
  1451  051C                     u1897:
  1452  051C  0BF0               	decfsz	??_key,f
  1453  051D  2D1C               	goto	u1897
  1454  051E  0BF1               	decfsz	??_key+1,f
  1455  051F  2D1C               	goto	u1897
  1456  0520  0BF2               	decfsz	??_key+2,f
  1457  0521  2D1C               	goto	u1897
  1458  0522  2D23               	nop2
  1459  0523                     l1350:
  1460                           
  1461                           ;main.c: 161:             RD0=0;
  1462  0523  1283               	bcf	3,5	;RP0=0, select bank0
  1463  0524  1303               	bcf	3,6	;RP1=0, select bank0
  1464  0525  1008               	bcf	8,0	;volatile
  1465  0526                     l1352:
  1466                           
  1467                           ;main.c: 162:             RD1=RD2=RD3=1;
  1468  0526  1588               	bsf	8,3	;volatile
  1469  0527  1988               	btfsc	8,3	;volatile
  1470  0528  2D2A               	goto	u1011
  1471  0529  2D2E               	goto	u1010
  1472  052A                     u1011:
  1473  052A  1283               	bcf	3,5	;RP0=0, select bank0
  1474  052B  1303               	bcf	3,6	;RP1=0, select bank0
  1475  052C  1508               	bsf	8,2	;volatile
  1476  052D  2D31               	goto	u1024
  1477  052E                     u1010:
  1478  052E  1283               	bcf	3,5	;RP0=0, select bank0
  1479  052F  1303               	bcf	3,6	;RP1=0, select bank0
  1480  0530  1108               	bcf	8,2	;volatile
  1481  0531                     u1024:
  1482  0531  1908               	btfsc	8,2	;volatile
  1483  0532  2D34               	goto	u1021
  1484  0533  2D38               	goto	u1020
  1485  0534                     u1021:
  1486  0534  1283               	bcf	3,5	;RP0=0, select bank0
  1487  0535  1303               	bcf	3,6	;RP1=0, select bank0
  1488  0536  1488               	bsf	8,1	;volatile
  1489  0537  2D3B               	goto	u1034
  1490  0538                     u1020:
  1491  0538  1283               	bcf	3,5	;RP0=0, select bank0
  1492  0539  1303               	bcf	3,6	;RP1=0, select bank0
  1493  053A  1088               	bcf	8,1	;volatile
  1494  053B                     u1034:
  1495  053B                     l1354:
  1496                           
  1497                           ;main.c: 163:             if(!RD4||!RD5||!RD6||!RD7)
  1498  053B  1E08               	btfss	8,4	;volatile
  1499  053C  2D3E               	goto	u1041
  1500  053D  2D3F               	goto	u1040
  1501  053E                     u1041:
  1502  053E  2D4B               	goto	l1362
  1503  053F                     u1040:
  1504  053F                     l1356:
  1505  053F  1E88               	btfss	8,5	;volatile
  1506  0540  2D42               	goto	u1051
  1507  0541  2D43               	goto	u1050
  1508  0542                     u1051:
  1509  0542  2D4B               	goto	l1362
  1510  0543                     u1050:
  1511  0543                     l1358:
  1512  0543  1F08               	btfss	8,6	;volatile
  1513  0544  2D46               	goto	u1061
  1514  0545  2D47               	goto	u1060
  1515  0546                     u1061:
  1516  0546  2D4B               	goto	l1362
  1517  0547                     u1060:
  1518  0547                     l1360:
  1519  0547  1B88               	btfsc	8,7	;volatile
  1520  0548  2D4A               	goto	u1071
  1521  0549  2D4B               	goto	u1070
  1522  054A                     u1071:
  1523  054A  2D4D               	goto	l117
  1524  054B                     u1070:
  1525  054B                     l1362:
  1526                           
  1527                           ;main.c: 164:                 {;main.c: 165:                     rowloc=0;
  1528  054B  01ED               	clrf	_rowloc
  1529                           
  1530                           ;main.c: 166:                     break;
  1531  054C  2DDC               	goto	l120
  1532  054D                     l117:	
  1533                           ;main.c: 167:                 }
  1534                           
  1535                           
  1536                           ;main.c: 168:             RD1=0;
  1537  054D  1088               	bcf	8,1	;volatile
  1538                           
  1539                           ;main.c: 169:             RD0=RD2=RD3=1;
  1540  054E  1588               	bsf	8,3	;volatile
  1541  054F  1988               	btfsc	8,3	;volatile
  1542  0550  2D52               	goto	u1081
  1543  0551  2D56               	goto	u1080
  1544  0552                     u1081:
  1545  0552  1283               	bcf	3,5	;RP0=0, select bank0
  1546  0553  1303               	bcf	3,6	;RP1=0, select bank0
  1547  0554  1508               	bsf	8,2	;volatile
  1548  0555  2D59               	goto	u1094
  1549  0556                     u1080:
  1550  0556  1283               	bcf	3,5	;RP0=0, select bank0
  1551  0557  1303               	bcf	3,6	;RP1=0, select bank0
  1552  0558  1108               	bcf	8,2	;volatile
  1553  0559                     u1094:
  1554  0559  1908               	btfsc	8,2	;volatile
  1555  055A  2D5C               	goto	u1091
  1556  055B  2D60               	goto	u1090
  1557  055C                     u1091:
  1558  055C  1283               	bcf	3,5	;RP0=0, select bank0
  1559  055D  1303               	bcf	3,6	;RP1=0, select bank0
  1560  055E  1408               	bsf	8,0	;volatile
  1561  055F  2D63               	goto	u1104
  1562  0560                     u1090:
  1563  0560  1283               	bcf	3,5	;RP0=0, select bank0
  1564  0561  1303               	bcf	3,6	;RP1=0, select bank0
  1565  0562  1008               	bcf	8,0	;volatile
  1566  0563                     u1104:
  1567                           
  1568                           ;main.c: 170:             if(!RD4||!RD5||!RD6||!RD7)
  1569  0563  1E08               	btfss	8,4	;volatile
  1570  0564  2D66               	goto	u1111
  1571  0565  2D67               	goto	u1110
  1572  0566                     u1111:
  1573  0566  2D73               	goto	l123
  1574  0567                     u1110:
  1575  0567                     l1364:
  1576  0567  1E88               	btfss	8,5	;volatile
  1577  0568  2D6A               	goto	u1121
  1578  0569  2D6B               	goto	u1120
  1579  056A                     u1121:
  1580  056A  2D73               	goto	l123
  1581  056B                     u1120:
  1582  056B                     l1366:
  1583  056B  1F08               	btfss	8,6	;volatile
  1584  056C  2D6E               	goto	u1131
  1585  056D  2D6F               	goto	u1130
  1586  056E                     u1131:
  1587  056E  2D73               	goto	l123
  1588  056F                     u1130:
  1589  056F                     l1368:
  1590  056F  1B88               	btfsc	8,7	;volatile
  1591  0570  2D72               	goto	u1141
  1592  0571  2D73               	goto	u1140
  1593  0572                     u1141:
  1594  0572  2D76               	goto	l121
  1595  0573                     u1140:
  1596  0573                     l123:
  1597                           
  1598                           ;main.c: 171:                 {;main.c: 172:                     rowloc=1;
  1599  0573  01ED               	clrf	_rowloc
  1600  0574  0AED               	incf	_rowloc,f
  1601                           
  1602                           ;main.c: 173:                     break;
  1603  0575  2DDC               	goto	l120
  1604  0576                     l121:	
  1605                           ;main.c: 174:                 }
  1606                           
  1607                           
  1608                           ;main.c: 175:             RD2=0;
  1609  0576  1108               	bcf	8,2	;volatile
  1610                           
  1611                           ;main.c: 176:             RD1=RD0=RD3=1;
  1612  0577  1588               	bsf	8,3	;volatile
  1613  0578  1988               	btfsc	8,3	;volatile
  1614  0579  2D7B               	goto	u1151
  1615  057A  2D7F               	goto	u1150
  1616  057B                     u1151:
  1617  057B  1283               	bcf	3,5	;RP0=0, select bank0
  1618  057C  1303               	bcf	3,6	;RP1=0, select bank0
  1619  057D  1408               	bsf	8,0	;volatile
  1620  057E  2D82               	goto	u1164
  1621  057F                     u1150:
  1622  057F  1283               	bcf	3,5	;RP0=0, select bank0
  1623  0580  1303               	bcf	3,6	;RP1=0, select bank0
  1624  0581  1008               	bcf	8,0	;volatile
  1625  0582                     u1164:
  1626  0582  1808               	btfsc	8,0	;volatile
  1627  0583  2D85               	goto	u1161
  1628  0584  2D89               	goto	u1160
  1629  0585                     u1161:
  1630  0585  1283               	bcf	3,5	;RP0=0, select bank0
  1631  0586  1303               	bcf	3,6	;RP1=0, select bank0
  1632  0587  1488               	bsf	8,1	;volatile
  1633  0588  2D8C               	goto	u1174
  1634  0589                     u1160:
  1635  0589  1283               	bcf	3,5	;RP0=0, select bank0
  1636  058A  1303               	bcf	3,6	;RP1=0, select bank0
  1637  058B  1088               	bcf	8,1	;volatile
  1638  058C                     u1174:
  1639                           
  1640                           ;main.c: 177:             if(!RD4||!RD5||!RD6||!RD7)
  1641  058C  1E08               	btfss	8,4	;volatile
  1642  058D  2D8F               	goto	u1181
  1643  058E  2D90               	goto	u1180
  1644  058F                     u1181:
  1645  058F  2D9C               	goto	l1376
  1646  0590                     u1180:
  1647  0590                     l1370:
  1648  0590  1E88               	btfss	8,5	;volatile
  1649  0591  2D93               	goto	u1191
  1650  0592  2D94               	goto	u1190
  1651  0593                     u1191:
  1652  0593  2D9C               	goto	l1376
  1653  0594                     u1190:
  1654  0594                     l1372:
  1655  0594  1F08               	btfss	8,6	;volatile
  1656  0595  2D97               	goto	u1201
  1657  0596  2D98               	goto	u1200
  1658  0597                     u1201:
  1659  0597  2D9C               	goto	l1376
  1660  0598                     u1200:
  1661  0598                     l1374:
  1662  0598  1B88               	btfsc	8,7	;volatile
  1663  0599  2D9B               	goto	u1211
  1664  059A  2D9C               	goto	u1210
  1665  059B                     u1211:
  1666  059B  2DA1               	goto	l124
  1667  059C                     u1210:
  1668  059C                     l1376:
  1669                           
  1670                           ;main.c: 178:                 {;main.c: 179:                     rowloc=2;
  1671  059C  3002               	movlw	2
  1672  059D  00F0               	movwf	??_key
  1673  059E  0870               	movf	??_key,w
  1674  059F  00ED               	movwf	_rowloc
  1675                           
  1676                           ;main.c: 180:                     break;
  1677  05A0  2DDC               	goto	l120
  1678  05A1                     l124:	
  1679                           ;main.c: 181:                 }
  1680                           
  1681                           
  1682                           ;main.c: 182:             RD3=0;
  1683  05A1  1188               	bcf	8,3	;volatile
  1684                           
  1685                           ;main.c: 183:             RD1=RD2=RD0=1;
  1686  05A2  1408               	bsf	8,0	;volatile
  1687  05A3  1808               	btfsc	8,0	;volatile
  1688  05A4  2DA6               	goto	u1221
  1689  05A5  2DAA               	goto	u1220
  1690  05A6                     u1221:
  1691  05A6  1283               	bcf	3,5	;RP0=0, select bank0
  1692  05A7  1303               	bcf	3,6	;RP1=0, select bank0
  1693  05A8  1508               	bsf	8,2	;volatile
  1694  05A9  2DAD               	goto	u1234
  1695  05AA                     u1220:
  1696  05AA  1283               	bcf	3,5	;RP0=0, select bank0
  1697  05AB  1303               	bcf	3,6	;RP1=0, select bank0
  1698  05AC  1108               	bcf	8,2	;volatile
  1699  05AD                     u1234:
  1700  05AD  1908               	btfsc	8,2	;volatile
  1701  05AE  2DB0               	goto	u1231
  1702  05AF  2DB4               	goto	u1230
  1703  05B0                     u1231:
  1704  05B0  1283               	bcf	3,5	;RP0=0, select bank0
  1705  05B1  1303               	bcf	3,6	;RP1=0, select bank0
  1706  05B2  1488               	bsf	8,1	;volatile
  1707  05B3  2DB7               	goto	u1244
  1708  05B4                     u1230:
  1709  05B4  1283               	bcf	3,5	;RP0=0, select bank0
  1710  05B5  1303               	bcf	3,6	;RP1=0, select bank0
  1711  05B6  1088               	bcf	8,1	;volatile
  1712  05B7                     u1244:
  1713                           
  1714                           ;main.c: 184:             if(!RD4||!RD5||!RD6||!RD7)
  1715  05B7  1E08               	btfss	8,4	;volatile
  1716  05B8  2DBA               	goto	u1251
  1717  05B9  2DBB               	goto	u1250
  1718  05BA                     u1251:
  1719  05BA  2DC7               	goto	l1384
  1720  05BB                     u1250:
  1721  05BB                     l1378:
  1722  05BB  1E88               	btfss	8,5	;volatile
  1723  05BC  2DBE               	goto	u1261
  1724  05BD  2DBF               	goto	u1260
  1725  05BE                     u1261:
  1726  05BE  2DC7               	goto	l1384
  1727  05BF                     u1260:
  1728  05BF                     l1380:
  1729  05BF  1F08               	btfss	8,6	;volatile
  1730  05C0  2DC2               	goto	u1271
  1731  05C1  2DC3               	goto	u1270
  1732  05C2                     u1271:
  1733  05C2  2DC7               	goto	l1384
  1734  05C3                     u1270:
  1735  05C3                     l1382:
  1736  05C3  1B88               	btfsc	8,7	;volatile
  1737  05C4  2DC6               	goto	u1281
  1738  05C5  2DC7               	goto	u1280
  1739  05C6                     u1281:
  1740  05C6  2DCC               	goto	l115
  1741  05C7                     u1280:
  1742  05C7                     l1384:
  1743                           
  1744                           ;main.c: 185:                 {;main.c: 186:                     rowloc=3;
  1745  05C7  3003               	movlw	3
  1746  05C8  00F0               	movwf	??_key
  1747  05C9  0870               	movf	??_key,w
  1748  05CA  00ED               	movwf	_rowloc
  1749                           
  1750                           ;main.c: 187:                     break;
  1751  05CB  2DDC               	goto	l120
  1752  05CC                     l115:	
  1753                           ;main.c: 190:             }
  1754                           
  1755                           
  1756                           ;main.c: 157:         while(!RD4||!RD5||!RD6||!RD7)
  1757  05CC  1E08               	btfss	8,4	;volatile
  1758  05CD  2DCF               	goto	u1291
  1759  05CE  2DD0               	goto	u1290
  1760  05CF                     u1291:
  1761  05CF  2D16               	goto	l1348
  1762  05D0                     u1290:
  1763  05D0                     l1386:
  1764  05D0  1E88               	btfss	8,5	;volatile
  1765  05D1  2DD3               	goto	u1301
  1766  05D2  2DD4               	goto	u1300
  1767  05D3                     u1301:
  1768  05D3  2D16               	goto	l1348
  1769  05D4                     u1300:
  1770  05D4                     l1388:
  1771  05D4  1F08               	btfss	8,6	;volatile
  1772  05D5  2DD7               	goto	u1311
  1773  05D6  2DD8               	goto	u1310
  1774  05D7                     u1311:
  1775  05D7  2D16               	goto	l1348
  1776  05D8                     u1310:
  1777  05D8                     l1390:
  1778  05D8  1F88               	btfss	8,7	;volatile
  1779  05D9  2DDB               	goto	u1321
  1780  05DA  2DDC               	goto	u1320
  1781  05DB                     u1321:
  1782  05DB  2D16               	goto	l1348
  1783  05DC                     u1320:
  1784  05DC                     l120:
  1785                           
  1786                           ;main.c: 191:        };main.c: 193:     if(RD4==0&&RD5!=0&&RD6!=0&&RD7!=0)
  1787  05DC  1A08               	btfsc	8,4	;volatile
  1788  05DD  2DDF               	goto	u1331
  1789  05DE  2DE0               	goto	u1330
  1790  05DF                     u1331:
  1791  05DF  2DEE               	goto	l130
  1792  05E0                     u1330:
  1793  05E0                     l1392:
  1794  05E0  1E88               	btfss	8,5	;volatile
  1795  05E1  2DE3               	goto	u1341
  1796  05E2  2DE4               	goto	u1340
  1797  05E3                     u1341:
  1798  05E3  2DEE               	goto	l130
  1799  05E4                     u1340:
  1800  05E4                     l1394:
  1801  05E4  1F08               	btfss	8,6	;volatile
  1802  05E5  2DE7               	goto	u1351
  1803  05E6  2DE8               	goto	u1350
  1804  05E7                     u1351:
  1805  05E7  2DEE               	goto	l130
  1806  05E8                     u1350:
  1807  05E8                     l1396:
  1808  05E8  1F88               	btfss	8,7	;volatile
  1809  05E9  2DEB               	goto	u1361
  1810  05EA  2DEC               	goto	u1360
  1811  05EB                     u1361:
  1812  05EB  2DEE               	goto	l130
  1813  05EC                     u1360:
  1814  05EC                     l1398:
  1815                           
  1816                           ;main.c: 194:     colloc=0;
  1817  05EC  01EC               	clrf	_colloc
  1818  05ED  2E2B               	goto	l137
  1819  05EE                     l130:	
  1820                           ;main.c: 195:     else if(RD4!=0&&RD5==0&&RD6!=0&&RD7!=0)
  1821                           
  1822  05EE  1E08               	btfss	8,4	;volatile
  1823  05EF  2DF1               	goto	u1371
  1824  05F0  2DF2               	goto	u1370
  1825  05F1                     u1371:
  1826  05F1  2E01               	goto	l132
  1827  05F2                     u1370:
  1828  05F2                     l1400:
  1829  05F2  1A88               	btfsc	8,5	;volatile
  1830  05F3  2DF5               	goto	u1381
  1831  05F4  2DF6               	goto	u1380
  1832  05F5                     u1381:
  1833  05F5  2E01               	goto	l132
  1834  05F6                     u1380:
  1835  05F6                     l1402:
  1836  05F6  1F08               	btfss	8,6	;volatile
  1837  05F7  2DF9               	goto	u1391
  1838  05F8  2DFA               	goto	u1390
  1839  05F9                     u1391:
  1840  05F9  2E01               	goto	l132
  1841  05FA                     u1390:
  1842  05FA                     l1404:
  1843  05FA  1F88               	btfss	8,7	;volatile
  1844  05FB  2DFD               	goto	u1401
  1845  05FC  2DFE               	goto	u1400
  1846  05FD                     u1401:
  1847  05FD  2E01               	goto	l132
  1848  05FE                     u1400:
  1849  05FE                     l1406:
  1850                           
  1851                           ;main.c: 196:     colloc=1;
  1852  05FE  01EC               	clrf	_colloc
  1853  05FF  0AEC               	incf	_colloc,f
  1854  0600  2E2B               	goto	l137
  1855  0601                     l132:	
  1856                           ;main.c: 197:     else if(RD4!=0&&RD5!=0&&RD6==0&&RD7!=0)
  1857                           
  1858  0601  1E08               	btfss	8,4	;volatile
  1859  0602  2E04               	goto	u1411
  1860  0603  2E05               	goto	u1410
  1861  0604                     u1411:
  1862  0604  2E16               	goto	l134
  1863  0605                     u1410:
  1864  0605                     l1408:
  1865  0605  1E88               	btfss	8,5	;volatile
  1866  0606  2E08               	goto	u1421
  1867  0607  2E09               	goto	u1420
  1868  0608                     u1421:
  1869  0608  2E16               	goto	l134
  1870  0609                     u1420:
  1871  0609                     l1410:
  1872  0609  1B08               	btfsc	8,6	;volatile
  1873  060A  2E0C               	goto	u1431
  1874  060B  2E0D               	goto	u1430
  1875  060C                     u1431:
  1876  060C  2E16               	goto	l134
  1877  060D                     u1430:
  1878  060D                     l1412:
  1879  060D  1F88               	btfss	8,7	;volatile
  1880  060E  2E10               	goto	u1441
  1881  060F  2E11               	goto	u1440
  1882  0610                     u1441:
  1883  0610  2E16               	goto	l134
  1884  0611                     u1440:
  1885  0611                     l1414:
  1886                           
  1887                           ;main.c: 198:     colloc=2;
  1888  0611  3002               	movlw	2
  1889  0612  00F0               	movwf	??_key
  1890  0613  0870               	movf	??_key,w
  1891  0614  00EC               	movwf	_colloc
  1892  0615  2E2B               	goto	l137
  1893  0616                     l134:	
  1894                           ;main.c: 199:     else if(RD4!=0&&RD5!=0&&RD6!=0&&RD7==0)
  1895                           
  1896  0616  1E08               	btfss	8,4	;volatile
  1897  0617  2E19               	goto	u1451
  1898  0618  2E1A               	goto	u1450
  1899  0619                     u1451:
  1900  0619  2E2B               	goto	l133
  1901  061A                     u1450:
  1902  061A                     l1416:
  1903  061A  1E88               	btfss	8,5	;volatile
  1904  061B  2E1D               	goto	u1461
  1905  061C  2E1E               	goto	u1460
  1906  061D                     u1461:
  1907  061D  2E2B               	goto	l133
  1908  061E                     u1460:
  1909  061E                     l1418:
  1910  061E  1F08               	btfss	8,6	;volatile
  1911  061F  2E21               	goto	u1471
  1912  0620  2E22               	goto	u1470
  1913  0621                     u1471:
  1914  0621  2E2B               	goto	l133
  1915  0622                     u1470:
  1916  0622                     l1420:
  1917  0622  1B88               	btfsc	8,7	;volatile
  1918  0623  2E25               	goto	u1481
  1919  0624  2E26               	goto	u1480
  1920  0625                     u1481:
  1921  0625  2E2B               	goto	l133
  1922  0626                     u1480:
  1923  0626                     l1422:
  1924                           
  1925                           ;main.c: 200:     colloc=3;
  1926  0626  3003               	movlw	3
  1927  0627  00F0               	movwf	??_key
  1928  0628  0870               	movf	??_key,w
  1929  0629  00EC               	movwf	_colloc
  1930  062A  2E2B               	goto	l137
  1931  062B                     l133:
  1932  062B                     l137:
  1933  062B  1E08               	btfss	8,4	;volatile
  1934  062C  2E2E               	goto	u1491
  1935  062D  2E2F               	goto	u1490
  1936  062E                     u1491:
  1937  062E  2E2B               	goto	l137
  1938  062F                     u1490:
  1939  062F                     l1424:
  1940  062F  1E88               	btfss	8,5	;volatile
  1941  0630  2E32               	goto	u1501
  1942  0631  2E33               	goto	u1500
  1943  0632                     u1501:
  1944  0632  2E2B               	goto	l137
  1945  0633                     u1500:
  1946  0633                     l1426:
  1947  0633  1F08               	btfss	8,6	;volatile
  1948  0634  2E36               	goto	u1511
  1949  0635  2E37               	goto	u1510
  1950  0636                     u1511:
  1951  0636  2E2B               	goto	l137
  1952  0637                     u1510:
  1953  0637                     l1428:
  1954  0637  1F88               	btfss	8,7	;volatile
  1955  0638  2E3A               	goto	u1521
  1956  0639  2E3B               	goto	u1520
  1957  063A                     u1521:
  1958  063A  2E2B               	goto	l137
  1959  063B                     u1520:
  1960  063B                     l1430:
  1961                           
  1962                           ;main.c: 203:     return (keypad[rowloc][colloc]);
  1963  063B  086D               	movf	_rowloc,w
  1964  063C  00F0               	movwf	??_key
  1965  063D  3002               	movlw	2
  1966  063E                     u1535:
  1967  063E  1003               	clrc
  1968  063F  0DF0               	rlf	??_key,f
  1969  0640  3EFF               	addlw	-1
  1970  0641  1D03               	skipz
  1971  0642  2E3E               	goto	u1535
  1972  0643  3020               	movlw	(low (_keypad| 0))& (0+255)
  1973  0644  0770               	addwf	??_key,w
  1974  0645  00F1               	movwf	??_key+1
  1975  0646  086C               	movf	_colloc,w
  1976  0647  0771               	addwf	??_key+1,w
  1977  0648  00F2               	movwf	??_key+2
  1978  0649  0872               	movf	??_key+2,w
  1979  064A  0084               	movwf	4
  1980  064B  1383               	bcf	3,7	;select IRP bank0
  1981  064C  0800               	movf	0,w
  1982  064D                     l140:
  1983  064D  0008               	return
  1984  064E                     __end_of_key:
  1985                           
  1986                           	psect	text5
  1987  02BC                     __ptext5:	
  1988 ;; *************** function _attach_sizes *****************
  1989 ;; Defined at:
  1990 ;;		line 341 in file "main.c"
  1991 ;; Parameters:    Size  Location     Type
  1992 ;;		None
  1993 ;; Auto vars:     Size  Location     Type
  1994 ;;  n4              1    8[COMMON] unsigned char 
  1995 ;;  n3              1    7[COMMON] unsigned char 
  1996 ;;  er              1    6[COMMON] unsigned char 
  1997 ;; Return value:  Size  Location     Type
  1998 ;;                  1    wreg      unsigned char 
  1999 ;; Registers used:
  2000 ;;		wreg, status,2, status,0, pclath, cstack
  2001 ;; Tracked objects:
  2002 ;;		On entry : 0/0
  2003 ;;		On exit  : 0/0
  2004 ;;		Unchanged: 0/0
  2005 ;; Data sizes:     COMMON   BANK0   BANK1   BANK3   BANK2
  2006 ;;      Params:         0       0       0       0       0
  2007 ;;      Locals:         3       0       0       0       0
  2008 ;;      Temps:          2       0       0       0       0
  2009 ;;      Totals:         5       0       0       0       0
  2010 ;;Total ram usage:        5 bytes
  2011 ;; Hardware stack levels used: 1
  2012 ;; Hardware stack levels required when called: 1
  2013 ;; This function calls:
  2014 ;;		___bmul
  2015 ;; This function is called by:
  2016 ;;		_main
  2017 ;; This function uses a non-reentrant model
  2018 ;;
  2019                           
  2020                           
  2021                           ;psect for function _attach_sizes
  2022  02BC                     _attach_sizes:
  2023  02BC                     l1540:	
  2024                           ;incstack = 0
  2025                           ; Regs used in _attach_sizes: [wreg+status,2+status,0+pclath+cstack]
  2026                           
  2027                           
  2028                           ;main.c: 343:     bs = b1*10 + b2;
  2029  02BC  300A               	movlw	10
  2030  02BD  00F4               	movwf	??_attach_sizes
  2031  02BE  0874               	movf	??_attach_sizes,w
  2032  02BF  00F0               	movwf	___bmul@multiplicand
  2033  02C0  087D               	movf	_b1,w
  2034  02C1  120A  118A  222E  120A  118A  	fcall	___bmul
  2035  02C6  1283               	bcf	3,5	;RP0=0, select bank0
  2036  02C7  1303               	bcf	3,6	;RP1=0, select bank0
  2037  02C8  0769               	addwf	_b2,w
  2038  02C9  00F5               	movwf	??_attach_sizes+1
  2039  02CA  0875               	movf	??_attach_sizes+1,w
  2040  02CB  00E5               	movwf	_bs
  2041                           
  2042                           ;main.c: 344:     cs = c1*10 + c2;
  2043  02CC  300A               	movlw	10
  2044  02CD  00F4               	movwf	??_attach_sizes
  2045  02CE  0874               	movf	??_attach_sizes,w
  2046  02CF  00F0               	movwf	___bmul@multiplicand
  2047  02D0  087C               	movf	_c1,w
  2048  02D1  120A  118A  222E  120A  118A  	fcall	___bmul
  2049  02D6  1283               	bcf	3,5	;RP0=0, select bank0
  2050  02D7  1303               	bcf	3,6	;RP1=0, select bank0
  2051  02D8  0768               	addwf	_c2,w
  2052  02D9  00F5               	movwf	??_attach_sizes+1
  2053  02DA  0875               	movf	??_attach_sizes+1,w
  2054  02DB  00E4               	movwf	_cs
  2055  02DC                     l1542:
  2056                           
  2057                           ;main.c: 346:     unsigned char n3 = n1;
  2058  02DC  0867               	movf	_n1,w
  2059  02DD  00F4               	movwf	??_attach_sizes
  2060  02DE  0874               	movf	??_attach_sizes,w
  2061  02DF  00F7               	movwf	attach_sizes@n3
  2062  02E0                     l1544:
  2063                           
  2064                           ;main.c: 347:     unsigned char n4 = n2;
  2065  02E0  0866               	movf	_n2,w
  2066  02E1  00F4               	movwf	??_attach_sizes
  2067  02E2  0874               	movf	??_attach_sizes,w
  2068  02E3  00F8               	movwf	attach_sizes@n4
  2069                           
  2070                           ;main.c: 348:     unsigned char er;;main.c: 349:     return er = n3*10 + n4;
  2071  02E4  300A               	movlw	10
  2072  02E5  00F4               	movwf	??_attach_sizes
  2073  02E6  0874               	movf	??_attach_sizes,w
  2074  02E7  00F0               	movwf	___bmul@multiplicand
  2075  02E8  0877               	movf	attach_sizes@n3,w
  2076  02E9  120A  118A  222E  120A  118A  	fcall	___bmul
  2077  02EE  0778               	addwf	attach_sizes@n4,w
  2078  02EF  00F6               	movwf	attach_sizes@er
  2079  02F0                     l188:
  2080  02F0  0008               	return
  2081  02F1                     __end_of_attach_sizes:
  2082                           
  2083                           	psect	text6
  2084  022E                     __ptext6:	
  2085 ;; *************** function ___bmul *****************
  2086 ;; Defined at:
  2087 ;;		line 4 in file "C:\Program Files\Microchip\xc8\v2.32\pic\sources\c90\common\Umul8.c"
  2088 ;; Parameters:    Size  Location     Type
  2089 ;;  multiplier      1    wreg     unsigned char 
  2090 ;;  multiplicand    1    0[COMMON] unsigned char 
  2091 ;; Auto vars:     Size  Location     Type
  2092 ;;  multiplier      1    3[COMMON] unsigned char 
  2093 ;;  product         1    2[COMMON] unsigned char 
  2094 ;; Return value:  Size  Location     Type
  2095 ;;                  1    wreg      unsigned char 
  2096 ;; Registers used:
  2097 ;;		wreg, status,2, status,0
  2098 ;; Tracked objects:
  2099 ;;		On entry : 0/0
  2100 ;;		On exit  : 0/0
  2101 ;;		Unchanged: 0/0
  2102 ;; Data sizes:     COMMON   BANK0   BANK1   BANK3   BANK2
  2103 ;;      Params:         1       0       0       0       0
  2104 ;;      Locals:         2       0       0       0       0
  2105 ;;      Temps:          1       0       0       0       0
  2106 ;;      Totals:         4       0       0       0       0
  2107 ;;Total ram usage:        4 bytes
  2108 ;; Hardware stack levels used: 1
  2109 ;; This function calls:
  2110 ;;		Nothing
  2111 ;; This function is called by:
  2112 ;;		_attach_sizes
  2113 ;; This function uses a non-reentrant model
  2114 ;;
  2115                           
  2116                           
  2117                           ;psect for function ___bmul
  2118  022E                     ___bmul:
  2119                           
  2120                           ;incstack = 0
  2121                           ; Regs used in ___bmul: [wreg+status,2+status,0]
  2122                           ;___bmul@multiplier stored from wreg
  2123  022E  00F3               	movwf	___bmul@multiplier
  2124  022F                     l1434:
  2125  022F  01F2               	clrf	___bmul@product
  2126  0230                     l1436:
  2127  0230  1C73               	btfss	___bmul@multiplier,0
  2128  0231  2A33               	goto	u1541
  2129  0232  2A34               	goto	u1540
  2130  0233                     u1541:
  2131  0233  2A38               	goto	l1440
  2132  0234                     u1540:
  2133  0234                     l1438:
  2134  0234  0870               	movf	___bmul@multiplicand,w
  2135  0235  00F1               	movwf	??___bmul
  2136  0236  0871               	movf	??___bmul,w
  2137  0237  07F2               	addwf	___bmul@product,f
  2138  0238                     l1440:
  2139  0238  1003               	clrc
  2140  0239  0DF0               	rlf	___bmul@multiplicand,f
  2141  023A                     l1442:
  2142  023A  1003               	clrc
  2143  023B  0CF3               	rrf	___bmul@multiplier,f
  2144  023C  0873               	movf	___bmul@multiplier,w
  2145  023D  1D03               	btfss	3,2
  2146  023E  2A40               	goto	u1551
  2147  023F  2A41               	goto	u1550
  2148  0240                     u1551:
  2149  0240  2A30               	goto	l1436
  2150  0241                     u1550:
  2151  0241                     l1444:
  2152  0241  0872               	movf	___bmul@product,w
  2153  0242                     l326:
  2154  0242  0008               	return
  2155  0243                     __end_of___bmul:
  2156                           
  2157                           	psect	text7
  2158  064E                     __ptext7:	
  2159 ;; *************** function _LCD_num *****************
  2160 ;; Defined at:
  2161 ;;		line 388 in file "main.c"
  2162 ;; Parameters:    Size  Location     Type
  2163 ;;  val             2    8[COMMON] unsigned int 
  2164 ;; Auto vars:     Size  Location     Type
  2165 ;;  remainder       2   12[BANK0 ] unsigned int 
  2166 ;;  result1         2   10[BANK0 ] unsigned int 
  2167 ;;  digit2          2    8[BANK0 ] unsigned int 
  2168 ;;  digit1          2    6[BANK0 ] unsigned int 
  2169 ;;  digit3          2    4[BANK0 ] unsigned int 
  2170 ;;  result          2    2[BANK0 ] unsigned int 
  2171 ;;  digit4          2    0[BANK0 ] unsigned int 
  2172 ;; Return value:  Size  Location     Type
  2173 ;;                  1    wreg      void 
  2174 ;; Registers used:
  2175 ;;		wreg, status,2, status,0, pclath, cstack
  2176 ;; Tracked objects:
  2177 ;;		On entry : 0/0
  2178 ;;		On exit  : 0/0
  2179 ;;		Unchanged: 0/0
  2180 ;; Data sizes:     COMMON   BANK0   BANK1   BANK3   BANK2
  2181 ;;      Params:         2       0       0       0       0
  2182 ;;      Locals:         0      14       0       0       0
  2183 ;;      Temps:          0       0       0       0       0
  2184 ;;      Totals:         2      14       0       0       0
  2185 ;;Total ram usage:       16 bytes
  2186 ;; Hardware stack levels used: 1
  2187 ;; Hardware stack levels required when called: 1
  2188 ;; This function calls:
  2189 ;;		_LCD_dat
  2190 ;;		___lwdiv
  2191 ;;		___lwmod
  2192 ;; This function is called by:
  2193 ;;		_main
  2194 ;;		_result_display
  2195 ;; This function uses a non-reentrant model
  2196 ;;
  2197                           
  2198                           
  2199                           ;psect for function _LCD_num
  2200  064E                     _LCD_num:
  2201  064E                     l1548:	
  2202                           ;incstack = 0
  2203                           ; Regs used in _LCD_num: [wreg+status,2+status,0+pclath+cstack]
  2204                           
  2205                           
  2206                           ;main.c: 388: void LCD_num (unsigned int val);main.c: 389: {;main.c: 390:     unsigned i
      +                          nt remainder, digit1, digit2, digit3, digit4, result, result1;;main.c: 391:     if (val<
      +                          =9)
  2207  064E  3000               	movlw	0
  2208  064F  0279               	subwf	LCD_num@val+1,w
  2209  0650  300A               	movlw	10
  2210  0651  1903               	skipnz
  2211  0652  0278               	subwf	LCD_num@val,w
  2212  0653  1803               	skipnc
  2213  0654  2E56               	goto	u1691
  2214  0655  2E57               	goto	u1690
  2215  0656                     u1691:
  2216  0656  2E5F               	goto	l1552
  2217  0657                     u1690:
  2218  0657                     l1550:
  2219                           
  2220                           ;main.c: 392:     {;main.c: 393:         LCD_dat (val+0x30);
  2221  0657  0878               	movf	LCD_num@val,w
  2222  0658  3E30               	addlw	48
  2223  0659  120A  118A  23F3  120A  118A  	fcall	_LCD_dat
  2224                           
  2225                           ;main.c: 394:     }
  2226  065E  2FDF               	goto	l211
  2227  065F                     l1552:
  2228  065F  3000               	movlw	0
  2229  0660  0279               	subwf	LCD_num@val+1,w
  2230  0661  300A               	movlw	10
  2231  0662  1903               	skipnz
  2232  0663  0278               	subwf	LCD_num@val,w
  2233  0664  1C03               	skipc
  2234  0665  2E67               	goto	u1701
  2235  0666  2E68               	goto	u1700
  2236  0667                     u1701:
  2237  0667  2EAC               	goto	l1566
  2238  0668                     u1700:
  2239  0668                     l1554:
  2240  0668  3000               	movlw	0
  2241  0669  0279               	subwf	LCD_num@val+1,w
  2242  066A  3064               	movlw	100
  2243  066B  1903               	skipnz
  2244  066C  0278               	subwf	LCD_num@val,w
  2245  066D  1803               	skipnc
  2246  066E  2E70               	goto	u1711
  2247  066F  2E71               	goto	u1710
  2248  0670                     u1711:
  2249  0670  2EAC               	goto	l1566
  2250  0671                     u1710:
  2251  0671                     l1556:
  2252                           
  2253                           ;main.c: 396:     {;main.c: 397:         remainder = val % 10;
  2254  0671  300A               	movlw	10
  2255  0672  00F0               	movwf	___lwmod@divisor
  2256  0673  3000               	movlw	0
  2257  0674  00F1               	movwf	___lwmod@divisor+1
  2258  0675  0879               	movf	LCD_num@val+1,w
  2259  0676  00F3               	movwf	___lwmod@dividend+1
  2260  0677  0878               	movf	LCD_num@val,w
  2261  0678  00F2               	movwf	___lwmod@dividend
  2262  0679  120A  118A  2329  120A  118A  	fcall	___lwmod
  2263  067E  0871               	movf	?___lwmod+1,w
  2264  067F  1283               	bcf	3,5	;RP0=0, select bank0
  2265  0680  1303               	bcf	3,6	;RP1=0, select bank0
  2266  0681  00E1               	movwf	LCD_num@remainder+1
  2267  0682  0870               	movf	?___lwmod,w
  2268  0683  00E0               	movwf	LCD_num@remainder
  2269  0684                     l1558:
  2270                           
  2271                           ;main.c: 398:         digit1 = remainder;
  2272  0684  0861               	movf	LCD_num@remainder+1,w
  2273  0685  00DB               	movwf	LCD_num@digit1+1
  2274  0686  0860               	movf	LCD_num@remainder,w
  2275  0687  00DA               	movwf	LCD_num@digit1
  2276  0688                     l1560:
  2277                           
  2278                           ;main.c: 399:         digit2 = val/10;
  2279  0688  300A               	movlw	10
  2280  0689  00F0               	movwf	___lwdiv@divisor
  2281  068A  3000               	movlw	0
  2282  068B  00F1               	movwf	___lwdiv@divisor+1
  2283  068C  0879               	movf	LCD_num@val+1,w
  2284  068D  00F3               	movwf	___lwdiv@dividend+1
  2285  068E  0878               	movf	LCD_num@val,w
  2286  068F  00F2               	movwf	___lwdiv@dividend
  2287  0690  120A  118A  2363  120A  118A  	fcall	___lwdiv
  2288  0695  0871               	movf	?___lwdiv+1,w
  2289  0696  1283               	bcf	3,5	;RP0=0, select bank0
  2290  0697  1303               	bcf	3,6	;RP1=0, select bank0
  2291  0698  00DD               	movwf	LCD_num@digit2+1
  2292  0699  0870               	movf	?___lwdiv,w
  2293  069A  00DC               	movwf	LCD_num@digit2
  2294  069B                     l1562:
  2295                           
  2296                           ;main.c: 400:         LCD_dat(digit2+0x30);
  2297  069B  085C               	movf	LCD_num@digit2,w
  2298  069C  3E30               	addlw	48
  2299  069D  120A  118A  23F3  120A  118A  	fcall	_LCD_dat
  2300  06A2                     l1564:
  2301                           
  2302                           ;main.c: 401:         LCD_dat(digit1+0x30);
  2303  06A2  1283               	bcf	3,5	;RP0=0, select bank0
  2304  06A3  1303               	bcf	3,6	;RP1=0, select bank0
  2305  06A4  085A               	movf	LCD_num@digit1,w
  2306  06A5  3E30               	addlw	48
  2307  06A6  120A  118A  23F3  120A  118A  	fcall	_LCD_dat
  2308                           
  2309                           ;main.c: 402:     }
  2310  06AB  2FDF               	goto	l211
  2311  06AC                     l1566:
  2312  06AC  3000               	movlw	0
  2313  06AD  0279               	subwf	LCD_num@val+1,w
  2314  06AE  3064               	movlw	100
  2315  06AF  1903               	skipnz
  2316  06B0  0278               	subwf	LCD_num@val,w
  2317  06B1  1C03               	skipc
  2318  06B2  2EB4               	goto	u1721
  2319  06B3  2EB5               	goto	u1720
  2320  06B4                     u1721:
  2321  06B4  2F2C               	goto	l1584
  2322  06B5                     u1720:
  2323  06B5                     l1568:
  2324  06B5  3003               	movlw	3
  2325  06B6  0279               	subwf	LCD_num@val+1,w
  2326  06B7  30E8               	movlw	232
  2327  06B8  1903               	skipnz
  2328  06B9  0278               	subwf	LCD_num@val,w
  2329  06BA  1803               	skipnc
  2330  06BB  2EBD               	goto	u1731
  2331  06BC  2EBE               	goto	u1730
  2332  06BD                     u1731:
  2333  06BD  2F2C               	goto	l1584
  2334  06BE                     u1730:
  2335  06BE                     l1570:
  2336                           
  2337                           ;main.c: 404:     {;main.c: 405:         remainder = val % 10;
  2338  06BE  300A               	movlw	10
  2339  06BF  00F0               	movwf	___lwmod@divisor
  2340  06C0  3000               	movlw	0
  2341  06C1  00F1               	movwf	___lwmod@divisor+1
  2342  06C2  0879               	movf	LCD_num@val+1,w
  2343  06C3  00F3               	movwf	___lwmod@dividend+1
  2344  06C4  0878               	movf	LCD_num@val,w
  2345  06C5  00F2               	movwf	___lwmod@dividend
  2346  06C6  120A  118A  2329  120A  118A  	fcall	___lwmod
  2347  06CB  0871               	movf	?___lwmod+1,w
  2348  06CC  1283               	bcf	3,5	;RP0=0, select bank0
  2349  06CD  1303               	bcf	3,6	;RP1=0, select bank0
  2350  06CE  00E1               	movwf	LCD_num@remainder+1
  2351  06CF  0870               	movf	?___lwmod,w
  2352  06D0  00E0               	movwf	LCD_num@remainder
  2353                           
  2354                           ;main.c: 406:         result1 = val /10;
  2355  06D1  300A               	movlw	10
  2356  06D2  00F0               	movwf	___lwdiv@divisor
  2357  06D3  3000               	movlw	0
  2358  06D4  00F1               	movwf	___lwdiv@divisor+1
  2359  06D5  0879               	movf	LCD_num@val+1,w
  2360  06D6  00F3               	movwf	___lwdiv@dividend+1
  2361  06D7  0878               	movf	LCD_num@val,w
  2362  06D8  00F2               	movwf	___lwdiv@dividend
  2363  06D9  120A  118A  2363  120A  118A  	fcall	___lwdiv
  2364  06DE  0871               	movf	?___lwdiv+1,w
  2365  06DF  1283               	bcf	3,5	;RP0=0, select bank0
  2366  06E0  1303               	bcf	3,6	;RP1=0, select bank0
  2367  06E1  00DF               	movwf	LCD_num@result1+1
  2368  06E2  0870               	movf	?___lwdiv,w
  2369  06E3  00DE               	movwf	LCD_num@result1
  2370  06E4                     l1572:
  2371                           
  2372                           ;main.c: 407:         digit1 = remainder;
  2373  06E4  0861               	movf	LCD_num@remainder+1,w
  2374  06E5  00DB               	movwf	LCD_num@digit1+1
  2375  06E6  0860               	movf	LCD_num@remainder,w
  2376  06E7  00DA               	movwf	LCD_num@digit1
  2377  06E8                     l1574:
  2378                           
  2379                           ;main.c: 408:         remainder = result1%10;
  2380  06E8  300A               	movlw	10
  2381  06E9  00F0               	movwf	___lwmod@divisor
  2382  06EA  3000               	movlw	0
  2383  06EB  00F1               	movwf	___lwmod@divisor+1
  2384  06EC  085F               	movf	LCD_num@result1+1,w
  2385  06ED  00F3               	movwf	___lwmod@dividend+1
  2386  06EE  085E               	movf	LCD_num@result1,w
  2387  06EF  00F2               	movwf	___lwmod@dividend
  2388  06F0  120A  118A  2329  120A  118A  	fcall	___lwmod
  2389  06F5  0871               	movf	?___lwmod+1,w
  2390  06F6  1283               	bcf	3,5	;RP0=0, select bank0
  2391  06F7  1303               	bcf	3,6	;RP1=0, select bank0
  2392  06F8  00E1               	movwf	LCD_num@remainder+1
  2393  06F9  0870               	movf	?___lwmod,w
  2394  06FA  00E0               	movwf	LCD_num@remainder
  2395                           
  2396                           ;main.c: 409:         digit2 = remainder;
  2397  06FB  0861               	movf	LCD_num@remainder+1,w
  2398  06FC  00DD               	movwf	LCD_num@digit2+1
  2399  06FD  0860               	movf	LCD_num@remainder,w
  2400  06FE  00DC               	movwf	LCD_num@digit2
  2401  06FF                     l1576:
  2402                           
  2403                           ;main.c: 410:         digit3 = result1/10;
  2404  06FF  300A               	movlw	10
  2405  0700  00F0               	movwf	___lwdiv@divisor
  2406  0701  3000               	movlw	0
  2407  0702  00F1               	movwf	___lwdiv@divisor+1
  2408  0703  085F               	movf	LCD_num@result1+1,w
  2409  0704  00F3               	movwf	___lwdiv@dividend+1
  2410  0705  085E               	movf	LCD_num@result1,w
  2411  0706  00F2               	movwf	___lwdiv@dividend
  2412  0707  120A  118A  2363  120A  118A  	fcall	___lwdiv
  2413  070C  0871               	movf	?___lwdiv+1,w
  2414  070D  1283               	bcf	3,5	;RP0=0, select bank0
  2415  070E  1303               	bcf	3,6	;RP1=0, select bank0
  2416  070F  00D9               	movwf	LCD_num@digit3+1
  2417  0710  0870               	movf	?___lwdiv,w
  2418  0711  00D8               	movwf	LCD_num@digit3
  2419  0712                     l1578:
  2420                           
  2421                           ;main.c: 411:         LCD_dat(digit3+0x30);
  2422  0712  0858               	movf	LCD_num@digit3,w
  2423  0713  3E30               	addlw	48
  2424  0714  120A  118A  23F3  120A  118A  	fcall	_LCD_dat
  2425  0719                     l1580:
  2426                           
  2427                           ;main.c: 412:         LCD_dat(digit2+0x30);
  2428  0719  1283               	bcf	3,5	;RP0=0, select bank0
  2429  071A  1303               	bcf	3,6	;RP1=0, select bank0
  2430  071B  085C               	movf	LCD_num@digit2,w
  2431  071C  3E30               	addlw	48
  2432  071D  120A  118A  23F3  120A  118A  	fcall	_LCD_dat
  2433  0722                     l1582:
  2434                           
  2435                           ;main.c: 413:         LCD_dat(digit1+0x30);
  2436  0722  1283               	bcf	3,5	;RP0=0, select bank0
  2437  0723  1303               	bcf	3,6	;RP1=0, select bank0
  2438  0724  085A               	movf	LCD_num@digit1,w
  2439  0725  3E30               	addlw	48
  2440  0726  120A  118A  23F3  120A  118A  	fcall	_LCD_dat
  2441                           
  2442                           ;main.c: 414:     }
  2443  072B  2FDF               	goto	l211
  2444  072C                     l1584:
  2445  072C  3003               	movlw	3
  2446  072D  0279               	subwf	LCD_num@val+1,w
  2447  072E  30E8               	movlw	232
  2448  072F  1903               	skipnz
  2449  0730  0278               	subwf	LCD_num@val,w
  2450  0731  1C03               	skipc
  2451  0732  2F34               	goto	u1741
  2452  0733  2F35               	goto	u1740
  2453  0734                     u1741:
  2454  0734  2FDF               	goto	l207
  2455  0735                     u1740:
  2456  0735                     l1586:
  2457  0735  3027               	movlw	39
  2458  0736  0279               	subwf	LCD_num@val+1,w
  2459  0737  300F               	movlw	15
  2460  0738  1903               	skipnz
  2461  0739  0278               	subwf	LCD_num@val,w
  2462  073A  1803               	skipnc
  2463  073B  2F3D               	goto	u1751
  2464  073C  2F3E               	goto	u1750
  2465  073D                     u1751:
  2466  073D  2FDF               	goto	l207
  2467  073E                     u1750:
  2468  073E                     l1588:
  2469                           
  2470                           ;main.c: 416:     {;main.c: 417:         remainder = val % 10;
  2471  073E  300A               	movlw	10
  2472  073F  00F0               	movwf	___lwmod@divisor
  2473  0740  3000               	movlw	0
  2474  0741  00F1               	movwf	___lwmod@divisor+1
  2475  0742  0879               	movf	LCD_num@val+1,w
  2476  0743  00F3               	movwf	___lwmod@dividend+1
  2477  0744  0878               	movf	LCD_num@val,w
  2478  0745  00F2               	movwf	___lwmod@dividend
  2479  0746  120A  118A  2329  120A  118A  	fcall	___lwmod
  2480  074B  0871               	movf	?___lwmod+1,w
  2481  074C  1283               	bcf	3,5	;RP0=0, select bank0
  2482  074D  1303               	bcf	3,6	;RP1=0, select bank0
  2483  074E  00E1               	movwf	LCD_num@remainder+1
  2484  074F  0870               	movf	?___lwmod,w
  2485  0750  00E0               	movwf	LCD_num@remainder
  2486                           
  2487                           ;main.c: 418:         result1 = val /10;
  2488  0751  300A               	movlw	10
  2489  0752  00F0               	movwf	___lwdiv@divisor
  2490  0753  3000               	movlw	0
  2491  0754  00F1               	movwf	___lwdiv@divisor+1
  2492  0755  0879               	movf	LCD_num@val+1,w
  2493  0756  00F3               	movwf	___lwdiv@dividend+1
  2494  0757  0878               	movf	LCD_num@val,w
  2495  0758  00F2               	movwf	___lwdiv@dividend
  2496  0759  120A  118A  2363  120A  118A  	fcall	___lwdiv
  2497  075E  0871               	movf	?___lwdiv+1,w
  2498  075F  1283               	bcf	3,5	;RP0=0, select bank0
  2499  0760  1303               	bcf	3,6	;RP1=0, select bank0
  2500  0761  00DF               	movwf	LCD_num@result1+1
  2501  0762  0870               	movf	?___lwdiv,w
  2502  0763  00DE               	movwf	LCD_num@result1
  2503  0764                     l1590:
  2504                           
  2505                           ;main.c: 419:         digit1 = remainder;
  2506  0764  0861               	movf	LCD_num@remainder+1,w
  2507  0765  00DB               	movwf	LCD_num@digit1+1
  2508  0766  0860               	movf	LCD_num@remainder,w
  2509  0767  00DA               	movwf	LCD_num@digit1
  2510  0768                     l1592:
  2511                           
  2512                           ;main.c: 420:         remainder = result1%10;
  2513  0768  300A               	movlw	10
  2514  0769  00F0               	movwf	___lwmod@divisor
  2515  076A  3000               	movlw	0
  2516  076B  00F1               	movwf	___lwmod@divisor+1
  2517  076C  085F               	movf	LCD_num@result1+1,w
  2518  076D  00F3               	movwf	___lwmod@dividend+1
  2519  076E  085E               	movf	LCD_num@result1,w
  2520  076F  00F2               	movwf	___lwmod@dividend
  2521  0770  120A  118A  2329  120A  118A  	fcall	___lwmod
  2522  0775  0871               	movf	?___lwmod+1,w
  2523  0776  1283               	bcf	3,5	;RP0=0, select bank0
  2524  0777  1303               	bcf	3,6	;RP1=0, select bank0
  2525  0778  00E1               	movwf	LCD_num@remainder+1
  2526  0779  0870               	movf	?___lwmod,w
  2527  077A  00E0               	movwf	LCD_num@remainder
  2528                           
  2529                           ;main.c: 421:         digit2 = remainder;
  2530  077B  0861               	movf	LCD_num@remainder+1,w
  2531  077C  00DD               	movwf	LCD_num@digit2+1
  2532  077D  0860               	movf	LCD_num@remainder,w
  2533  077E  00DC               	movwf	LCD_num@digit2
  2534  077F                     l1594:
  2535                           
  2536                           ;main.c: 422:         result = result1/10;
  2537  077F  300A               	movlw	10
  2538  0780  00F0               	movwf	___lwdiv@divisor
  2539  0781  3000               	movlw	0
  2540  0782  00F1               	movwf	___lwdiv@divisor+1
  2541  0783  085F               	movf	LCD_num@result1+1,w
  2542  0784  00F3               	movwf	___lwdiv@dividend+1
  2543  0785  085E               	movf	LCD_num@result1,w
  2544  0786  00F2               	movwf	___lwdiv@dividend
  2545  0787  120A  118A  2363  120A  118A  	fcall	___lwdiv
  2546  078C  0871               	movf	?___lwdiv+1,w
  2547  078D  1283               	bcf	3,5	;RP0=0, select bank0
  2548  078E  1303               	bcf	3,6	;RP1=0, select bank0
  2549  078F  00D7               	movwf	LCD_num@result+1
  2550  0790  0870               	movf	?___lwdiv,w
  2551  0791  00D6               	movwf	LCD_num@result
  2552  0792                     l1596:
  2553                           
  2554                           ;main.c: 423:         remainder = result%10;
  2555  0792  300A               	movlw	10
  2556  0793  00F0               	movwf	___lwmod@divisor
  2557  0794  3000               	movlw	0
  2558  0795  00F1               	movwf	___lwmod@divisor+1
  2559  0796  0857               	movf	LCD_num@result+1,w
  2560  0797  00F3               	movwf	___lwmod@dividend+1
  2561  0798  0856               	movf	LCD_num@result,w
  2562  0799  00F2               	movwf	___lwmod@dividend
  2563  079A  120A  118A  2329  120A  118A  	fcall	___lwmod
  2564  079F  0871               	movf	?___lwmod+1,w
  2565  07A0  1283               	bcf	3,5	;RP0=0, select bank0
  2566  07A1  1303               	bcf	3,6	;RP1=0, select bank0
  2567  07A2  00E1               	movwf	LCD_num@remainder+1
  2568  07A3  0870               	movf	?___lwmod,w
  2569  07A4  00E0               	movwf	LCD_num@remainder
  2570                           
  2571                           ;main.c: 424:         digit3=remainder;
  2572  07A5  0861               	movf	LCD_num@remainder+1,w
  2573  07A6  00D9               	movwf	LCD_num@digit3+1
  2574  07A7  0860               	movf	LCD_num@remainder,w
  2575  07A8  00D8               	movwf	LCD_num@digit3
  2576  07A9                     l1598:
  2577                           
  2578                           ;main.c: 425:         digit4 = result/10;
  2579  07A9  300A               	movlw	10
  2580  07AA  00F0               	movwf	___lwdiv@divisor
  2581  07AB  3000               	movlw	0
  2582  07AC  00F1               	movwf	___lwdiv@divisor+1
  2583  07AD  0857               	movf	LCD_num@result+1,w
  2584  07AE  00F3               	movwf	___lwdiv@dividend+1
  2585  07AF  0856               	movf	LCD_num@result,w
  2586  07B0  00F2               	movwf	___lwdiv@dividend
  2587  07B1  120A  118A  2363  120A  118A  	fcall	___lwdiv
  2588  07B6  0871               	movf	?___lwdiv+1,w
  2589  07B7  1283               	bcf	3,5	;RP0=0, select bank0
  2590  07B8  1303               	bcf	3,6	;RP1=0, select bank0
  2591  07B9  00D5               	movwf	LCD_num@digit4+1
  2592  07BA  0870               	movf	?___lwdiv,w
  2593  07BB  00D4               	movwf	LCD_num@digit4
  2594  07BC                     l1600:
  2595                           
  2596                           ;main.c: 426:         LCD_dat(digit4+0x30);
  2597  07BC  0854               	movf	LCD_num@digit4,w
  2598  07BD  3E30               	addlw	48
  2599  07BE  120A  118A  23F3  120A  118A  	fcall	_LCD_dat
  2600  07C3                     l1602:
  2601                           
  2602                           ;main.c: 427:         LCD_dat(digit3+0x30);
  2603  07C3  1283               	bcf	3,5	;RP0=0, select bank0
  2604  07C4  1303               	bcf	3,6	;RP1=0, select bank0
  2605  07C5  0858               	movf	LCD_num@digit3,w
  2606  07C6  3E30               	addlw	48
  2607  07C7  120A  118A  23F3  120A  118A  	fcall	_LCD_dat
  2608  07CC                     l1604:
  2609                           
  2610                           ;main.c: 428:         LCD_dat(digit2+0x30);
  2611  07CC  1283               	bcf	3,5	;RP0=0, select bank0
  2612  07CD  1303               	bcf	3,6	;RP1=0, select bank0
  2613  07CE  085C               	movf	LCD_num@digit2,w
  2614  07CF  3E30               	addlw	48
  2615  07D0  120A  118A  23F3  120A  118A  	fcall	_LCD_dat
  2616  07D5                     l1606:
  2617                           
  2618                           ;main.c: 429:         LCD_dat(digit1+0x30);
  2619  07D5  1283               	bcf	3,5	;RP0=0, select bank0
  2620  07D6  1303               	bcf	3,6	;RP1=0, select bank0
  2621  07D7  085A               	movf	LCD_num@digit1,w
  2622  07D8  3E30               	addlw	48
  2623  07D9  120A  118A  23F3  120A  118A  	fcall	_LCD_dat
  2624  07DE  2FDF               	goto	l211
  2625  07DF                     l207:
  2626  07DF                     l211:
  2627  07DF  0008               	return
  2628  07E0                     __end_of_LCD_num:
  2629                           
  2630                           	psect	text8
  2631  0329                     __ptext8:	
  2632 ;; *************** function ___lwmod *****************
  2633 ;; Defined at:
  2634 ;;		line 5 in file "C:\Program Files\Microchip\xc8\v2.32\pic\sources\c90\common\lwmod.c"
  2635 ;; Parameters:    Size  Location     Type
  2636 ;;  divisor         2    0[COMMON] unsigned int 
  2637 ;;  dividend        2    2[COMMON] unsigned int 
  2638 ;; Auto vars:     Size  Location     Type
  2639 ;;  counter         1    5[COMMON] unsigned char 
  2640 ;; Return value:  Size  Location     Type
  2641 ;;                  2    0[COMMON] unsigned int 
  2642 ;; Registers used:
  2643 ;;		wreg, status,2, status,0
  2644 ;; Tracked objects:
  2645 ;;		On entry : 0/0
  2646 ;;		On exit  : 0/0
  2647 ;;		Unchanged: 0/0
  2648 ;; Data sizes:     COMMON   BANK0   BANK1   BANK3   BANK2
  2649 ;;      Params:         4       0       0       0       0
  2650 ;;      Locals:         1       0       0       0       0
  2651 ;;      Temps:          1       0       0       0       0
  2652 ;;      Totals:         6       0       0       0       0
  2653 ;;Total ram usage:        6 bytes
  2654 ;; Hardware stack levels used: 1
  2655 ;; This function calls:
  2656 ;;		Nothing
  2657 ;; This function is called by:
  2658 ;;		_LCD_num
  2659 ;; This function uses a non-reentrant model
  2660 ;;
  2661                           
  2662                           
  2663                           ;psect for function ___lwmod
  2664  0329                     ___lwmod:
  2665  0329                     l1474:	
  2666                           ;incstack = 0
  2667                           ; Regs used in ___lwmod: [wreg+status,2+status,0]
  2668                           
  2669  0329  0870               	movf	___lwmod@divisor,w
  2670  032A  0471               	iorwf	___lwmod@divisor+1,w
  2671  032B  1903               	btfsc	3,2
  2672  032C  2B2E               	goto	u1631
  2673  032D  2B2F               	goto	u1630
  2674  032E                     u1631:
  2675  032E  2B5E               	goto	l1492
  2676  032F                     u1630:
  2677  032F                     l1476:
  2678  032F  01F5               	clrf	___lwmod@counter
  2679  0330  0AF5               	incf	___lwmod@counter,f
  2680  0331  2B3D               	goto	l1482
  2681  0332                     l1478:
  2682  0332  3001               	movlw	1
  2683  0333                     u1645:
  2684  0333  1003               	clrc
  2685  0334  0DF0               	rlf	___lwmod@divisor,f
  2686  0335  0DF1               	rlf	___lwmod@divisor+1,f
  2687  0336  3EFF               	addlw	-1
  2688  0337  1D03               	skipz
  2689  0338  2B33               	goto	u1645
  2690  0339                     l1480:
  2691  0339  3001               	movlw	1
  2692  033A  00F4               	movwf	??___lwmod
  2693  033B  0874               	movf	??___lwmod,w
  2694  033C  07F5               	addwf	___lwmod@counter,f
  2695  033D                     l1482:
  2696  033D  1FF1               	btfss	___lwmod@divisor+1,7
  2697  033E  2B40               	goto	u1651
  2698  033F  2B41               	goto	u1650
  2699  0340                     u1651:
  2700  0340  2B32               	goto	l1478
  2701  0341                     u1650:
  2702  0341                     l1484:
  2703  0341  0871               	movf	___lwmod@divisor+1,w
  2704  0342  0273               	subwf	___lwmod@dividend+1,w
  2705  0343  1D03               	skipz
  2706  0344  2B47               	goto	u1665
  2707  0345  0870               	movf	___lwmod@divisor,w
  2708  0346  0272               	subwf	___lwmod@dividend,w
  2709  0347                     u1665:
  2710  0347  1C03               	skipc
  2711  0348  2B4A               	goto	u1661
  2712  0349  2B4B               	goto	u1660
  2713  034A                     u1661:
  2714  034A  2B51               	goto	l1488
  2715  034B                     u1660:
  2716  034B                     l1486:
  2717  034B  0870               	movf	___lwmod@divisor,w
  2718  034C  02F2               	subwf	___lwmod@dividend,f
  2719  034D  0871               	movf	___lwmod@divisor+1,w
  2720  034E  1C03               	skipc
  2721  034F  03F3               	decf	___lwmod@dividend+1,f
  2722  0350  02F3               	subwf	___lwmod@dividend+1,f
  2723  0351                     l1488:
  2724  0351  3001               	movlw	1
  2725  0352                     u1675:
  2726  0352  1003               	clrc
  2727  0353  0CF1               	rrf	___lwmod@divisor+1,f
  2728  0354  0CF0               	rrf	___lwmod@divisor,f
  2729  0355  3EFF               	addlw	-1
  2730  0356  1D03               	skipz
  2731  0357  2B52               	goto	u1675
  2732  0358                     l1490:
  2733  0358  3001               	movlw	1
  2734  0359  02F5               	subwf	___lwmod@counter,f
  2735  035A  1D03               	btfss	3,2
  2736  035B  2B5D               	goto	u1681
  2737  035C  2B5E               	goto	u1680
  2738  035D                     u1681:
  2739  035D  2B41               	goto	l1484
  2740  035E                     u1680:
  2741  035E                     l1492:
  2742  035E  0873               	movf	___lwmod@dividend+1,w
  2743  035F  00F1               	movwf	?___lwmod+1
  2744  0360  0872               	movf	___lwmod@dividend,w
  2745  0361  00F0               	movwf	?___lwmod
  2746  0362                     l582:
  2747  0362  0008               	return
  2748  0363                     __end_of___lwmod:
  2749                           
  2750                           	psect	text9
  2751  0363                     __ptext9:	
  2752 ;; *************** function ___lwdiv *****************
  2753 ;; Defined at:
  2754 ;;		line 5 in file "C:\Program Files\Microchip\xc8\v2.32\pic\sources\c90\common\lwdiv.c"
  2755 ;; Parameters:    Size  Location     Type
  2756 ;;  divisor         2    0[COMMON] unsigned int 
  2757 ;;  dividend        2    2[COMMON] unsigned int 
  2758 ;; Auto vars:     Size  Location     Type
  2759 ;;  quotient        2    5[COMMON] unsigned int 
  2760 ;;  counter         1    7[COMMON] unsigned char 
  2761 ;; Return value:  Size  Location     Type
  2762 ;;                  2    0[COMMON] unsigned int 
  2763 ;; Registers used:
  2764 ;;		wreg, status,2, status,0
  2765 ;; Tracked objects:
  2766 ;;		On entry : 0/0
  2767 ;;		On exit  : 0/0
  2768 ;;		Unchanged: 0/0
  2769 ;; Data sizes:     COMMON   BANK0   BANK1   BANK3   BANK2
  2770 ;;      Params:         4       0       0       0       0
  2771 ;;      Locals:         3       0       0       0       0
  2772 ;;      Temps:          1       0       0       0       0
  2773 ;;      Totals:         8       0       0       0       0
  2774 ;;Total ram usage:        8 bytes
  2775 ;; Hardware stack levels used: 1
  2776 ;; This function calls:
  2777 ;;		Nothing
  2778 ;; This function is called by:
  2779 ;;		_LCD_num
  2780 ;;		_rotation
  2781 ;;		_result_display
  2782 ;; This function uses a non-reentrant model
  2783 ;;
  2784                           
  2785                           
  2786                           ;psect for function ___lwdiv
  2787  0363                     ___lwdiv:
  2788  0363                     l1448:	
  2789                           ;incstack = 0
  2790                           ; Regs used in ___lwdiv: [wreg+status,2+status,0]
  2791                           
  2792  0363  01F5               	clrf	___lwdiv@quotient
  2793  0364  01F6               	clrf	___lwdiv@quotient+1
  2794  0365                     l1450:
  2795  0365  0870               	movf	___lwdiv@divisor,w
  2796  0366  0471               	iorwf	___lwdiv@divisor+1,w
  2797  0367  1903               	btfsc	3,2
  2798  0368  2B6A               	goto	u1561
  2799  0369  2B6B               	goto	u1560
  2800  036A                     u1561:
  2801  036A  2BA2               	goto	l1470
  2802  036B                     u1560:
  2803  036B                     l1452:
  2804  036B  01F7               	clrf	___lwdiv@counter
  2805  036C  0AF7               	incf	___lwdiv@counter,f
  2806  036D  2B79               	goto	l1458
  2807  036E                     l1454:
  2808  036E  3001               	movlw	1
  2809  036F                     u1575:
  2810  036F  1003               	clrc
  2811  0370  0DF0               	rlf	___lwdiv@divisor,f
  2812  0371  0DF1               	rlf	___lwdiv@divisor+1,f
  2813  0372  3EFF               	addlw	-1
  2814  0373  1D03               	skipz
  2815  0374  2B6F               	goto	u1575
  2816  0375                     l1456:
  2817  0375  3001               	movlw	1
  2818  0376  00F4               	movwf	??___lwdiv
  2819  0377  0874               	movf	??___lwdiv,w
  2820  0378  07F7               	addwf	___lwdiv@counter,f
  2821  0379                     l1458:
  2822  0379  1FF1               	btfss	___lwdiv@divisor+1,7
  2823  037A  2B7C               	goto	u1581
  2824  037B  2B7D               	goto	u1580
  2825  037C                     u1581:
  2826  037C  2B6E               	goto	l1454
  2827  037D                     u1580:
  2828  037D                     l1460:
  2829  037D  3001               	movlw	1
  2830  037E                     u1595:
  2831  037E  1003               	clrc
  2832  037F  0DF5               	rlf	___lwdiv@quotient,f
  2833  0380  0DF6               	rlf	___lwdiv@quotient+1,f
  2834  0381  3EFF               	addlw	-1
  2835  0382  1D03               	skipz
  2836  0383  2B7E               	goto	u1595
  2837  0384  0871               	movf	___lwdiv@divisor+1,w
  2838  0385  0273               	subwf	___lwdiv@dividend+1,w
  2839  0386  1D03               	skipz
  2840  0387  2B8A               	goto	u1605
  2841  0388  0870               	movf	___lwdiv@divisor,w
  2842  0389  0272               	subwf	___lwdiv@dividend,w
  2843  038A                     u1605:
  2844  038A  1C03               	skipc
  2845  038B  2B8D               	goto	u1601
  2846  038C  2B8E               	goto	u1600
  2847  038D                     u1601:
  2848  038D  2B95               	goto	l1466
  2849  038E                     u1600:
  2850  038E                     l1462:
  2851  038E  0870               	movf	___lwdiv@divisor,w
  2852  038F  02F2               	subwf	___lwdiv@dividend,f
  2853  0390  0871               	movf	___lwdiv@divisor+1,w
  2854  0391  1C03               	skipc
  2855  0392  03F3               	decf	___lwdiv@dividend+1,f
  2856  0393  02F3               	subwf	___lwdiv@dividend+1,f
  2857  0394                     l1464:
  2858  0394  1475               	bsf	___lwdiv@quotient,0
  2859  0395                     l1466:
  2860  0395  3001               	movlw	1
  2861  0396                     u1615:
  2862  0396  1003               	clrc
  2863  0397  0CF1               	rrf	___lwdiv@divisor+1,f
  2864  0398  0CF0               	rrf	___lwdiv@divisor,f
  2865  0399  3EFF               	addlw	-1
  2866  039A  1D03               	skipz
  2867  039B  2B96               	goto	u1615
  2868  039C                     l1468:
  2869  039C  3001               	movlw	1
  2870  039D  02F7               	subwf	___lwdiv@counter,f
  2871  039E  1D03               	btfss	3,2
  2872  039F  2BA1               	goto	u1621
  2873  03A0  2BA2               	goto	u1620
  2874  03A1                     u1621:
  2875  03A1  2B7D               	goto	l1460
  2876  03A2                     u1620:
  2877  03A2                     l1470:
  2878  03A2  0876               	movf	___lwdiv@quotient+1,w
  2879  03A3  00F1               	movwf	?___lwdiv+1
  2880  03A4  0875               	movf	___lwdiv@quotient,w
  2881  03A5  00F0               	movwf	?___lwdiv
  2882  03A6                     l572:
  2883  03A6  0008               	return
  2884  03A7                     __end_of___lwdiv:
  2885                           
  2886                           	psect	text10
  2887  03F3                     __ptext10:	
  2888 ;; *************** function _LCD_dat *****************
  2889 ;; Defined at:
  2890 ;;		line 121 in file "main.c"
  2891 ;; Parameters:    Size  Location     Type
  2892 ;;  data            1    wreg     unsigned char 
  2893 ;; Auto vars:     Size  Location     Type
  2894 ;;  data            1    2[COMMON] unsigned char 
  2895 ;; Return value:  Size  Location     Type
  2896 ;;                  1    wreg      void 
  2897 ;; Registers used:
  2898 ;;		wreg, status,2, status,0
  2899 ;; Tracked objects:
  2900 ;;		On entry : 0/0
  2901 ;;		On exit  : 0/0
  2902 ;;		Unchanged: 0/0
  2903 ;; Data sizes:     COMMON   BANK0   BANK1   BANK3   BANK2
  2904 ;;      Params:         0       0       0       0       0
  2905 ;;      Locals:         1       0       0       0       0
  2906 ;;      Temps:          2       0       0       0       0
  2907 ;;      Totals:         3       0       0       0       0
  2908 ;;Total ram usage:        3 bytes
  2909 ;; Hardware stack levels used: 1
  2910 ;; This function calls:
  2911 ;;		Nothing
  2912 ;; This function is called by:
  2913 ;;		_show
  2914 ;;		_fetch_sizes
  2915 ;;		_LCD_num
  2916 ;;		_display_data
  2917 ;; This function uses a non-reentrant model
  2918 ;;
  2919                           
  2920                           
  2921                           ;psect for function _LCD_dat
  2922  03F3                     _LCD_dat:
  2923                           
  2924                           ;incstack = 0
  2925                           ; Regs used in _LCD_dat: [wreg+status,2+status,0]
  2926                           ;LCD_dat@data stored from wreg
  2927  03F3  00F2               	movwf	LCD_dat@data
  2928  03F4                     l1292:
  2929                           
  2930                           ;main.c: 121: void LCD_dat(unsigned char data);main.c: 122: {;main.c: 123:     RC2 =1;
  2931  03F4  1283               	bcf	3,5	;RP0=0, select bank0
  2932  03F5  1303               	bcf	3,6	;RP1=0, select bank0
  2933  03F6  1507               	bsf	7,2	;volatile
  2934  03F7                     l1294:
  2935                           
  2936                           ;main.c: 124:    _delay((unsigned long)((10)*(20000000/4000.0)));
  2937  03F7  3041               	movlw	65
  2938  03F8  00F1               	movwf	??_LCD_dat+1
  2939  03F9  30EE               	movlw	238
  2940  03FA  00F0               	movwf	??_LCD_dat
  2941  03FB                     u1907:
  2942  03FB  0BF0               	decfsz	??_LCD_dat,f
  2943  03FC  2BFB               	goto	u1907
  2944  03FD  0BF1               	decfsz	??_LCD_dat+1,f
  2945  03FE  2BFB               	goto	u1907
  2946  03FF  0000               	nop
  2947                           
  2948                           ;main.c: 125:    PORTC =(data);
  2949  0400  0872               	movf	LCD_dat@data,w
  2950  0401  1283               	bcf	3,5	;RP0=0, select bank0
  2951  0402  1303               	bcf	3,6	;RP1=0, select bank0
  2952  0403  0087               	movwf	7	;volatile
  2953  0404                     l1296:
  2954                           
  2955                           ;main.c: 126:    RC3=1;
  2956  0404  1587               	bsf	7,3	;volatile
  2957                           
  2958                           ;main.c: 127:    _delay((unsigned long)((10)*(20000000/4000.0)));
  2959  0405  3041               	movlw	65
  2960  0406  00F1               	movwf	??_LCD_dat+1
  2961  0407  30EE               	movlw	238
  2962  0408  00F0               	movwf	??_LCD_dat
  2963  0409                     u1917:
  2964  0409  0BF0               	decfsz	??_LCD_dat,f
  2965  040A  2C09               	goto	u1917
  2966  040B  0BF1               	decfsz	??_LCD_dat+1,f
  2967  040C  2C09               	goto	u1917
  2968  040D  0000               	nop
  2969  040E                     l1298:
  2970                           
  2971                           ;main.c: 128:    RC3=0;
  2972  040E  1283               	bcf	3,5	;RP0=0, select bank0
  2973  040F  1303               	bcf	3,6	;RP1=0, select bank0
  2974  0410  1187               	bcf	7,3	;volatile
  2975                           
  2976                           ;main.c: 129:    _delay((unsigned long)((10)*(20000000/4000.0)));
  2977  0411  3041               	movlw	65
  2978  0412  00F1               	movwf	??_LCD_dat+1
  2979  0413  30EE               	movlw	238
  2980  0414  00F0               	movwf	??_LCD_dat
  2981  0415                     u1927:
  2982  0415  0BF0               	decfsz	??_LCD_dat,f
  2983  0416  2C15               	goto	u1927
  2984  0417  0BF1               	decfsz	??_LCD_dat+1,f
  2985  0418  2C15               	goto	u1927
  2986  0419  0000               	nop
  2987  041A                     l1300:
  2988                           
  2989                           ;main.c: 130:    PORTC=(data<<4);
  2990  041A  0872               	movf	LCD_dat@data,w
  2991  041B  00F0               	movwf	??_LCD_dat
  2992  041C  3003               	movlw	3
  2993  041D                     u945:
  2994  041D  1003               	clrc
  2995  041E  0DF0               	rlf	??_LCD_dat,f
  2996  041F  3EFF               	addlw	-1
  2997  0420  1D03               	skipz
  2998  0421  2C1D               	goto	u945
  2999  0422  1003               	clrc
  3000  0423  0D70               	rlf	??_LCD_dat,w
  3001  0424  1283               	bcf	3,5	;RP0=0, select bank0
  3002  0425  1303               	bcf	3,6	;RP1=0, select bank0
  3003  0426  0087               	movwf	7	;volatile
  3004  0427                     l1302:
  3005                           
  3006                           ;main.c: 131:    RC2 =1;
  3007  0427  1507               	bsf	7,2	;volatile
  3008  0428                     l1304:
  3009                           
  3010                           ;main.c: 132:    RC3=1;
  3011  0428  1587               	bsf	7,3	;volatile
  3012  0429                     l1306:
  3013                           
  3014                           ;main.c: 133:    _delay((unsigned long)((10)*(20000000/4000.0)));
  3015  0429  3041               	movlw	65
  3016  042A  00F1               	movwf	??_LCD_dat+1
  3017  042B  30EE               	movlw	238
  3018  042C  00F0               	movwf	??_LCD_dat
  3019  042D                     u1937:
  3020  042D  0BF0               	decfsz	??_LCD_dat,f
  3021  042E  2C2D               	goto	u1937
  3022  042F  0BF1               	decfsz	??_LCD_dat+1,f
  3023  0430  2C2D               	goto	u1937
  3024  0431  0000               	nop
  3025  0432                     l1308:
  3026                           
  3027                           ;main.c: 134:    RC3=0;
  3028  0432  1283               	bcf	3,5	;RP0=0, select bank0
  3029  0433  1303               	bcf	3,6	;RP1=0, select bank0
  3030  0434  1187               	bcf	7,3	;volatile
  3031  0435                     l1310:
  3032                           
  3033                           ;main.c: 135:    _delay((unsigned long)((10)*(20000000/4000.0)));
  3034  0435  3041               	movlw	65
  3035  0436  00F1               	movwf	??_LCD_dat+1
  3036  0437  30EE               	movlw	238
  3037  0438  00F0               	movwf	??_LCD_dat
  3038  0439                     u1947:
  3039  0439  0BF0               	decfsz	??_LCD_dat,f
  3040  043A  2C39               	goto	u1947
  3041  043B  0BF1               	decfsz	??_LCD_dat+1,f
  3042  043C  2C39               	goto	u1947
  3043  043D  0000               	nop
  3044  043E                     l98:
  3045  043E  0008               	return
  3046  043F                     __end_of_LCD_dat:
  3047                           
  3048                           	psect	text11
  3049  0243                     __ptext11:	
  3050 ;; *************** function _LCD_init *****************
  3051 ;; Defined at:
  3052 ;;		line 95 in file "main.c"
  3053 ;; Parameters:    Size  Location     Type
  3054 ;;		None
  3055 ;; Auto vars:     Size  Location     Type
  3056 ;;		None
  3057 ;; Return value:  Size  Location     Type
  3058 ;;                  1    wreg      void 
  3059 ;; Registers used:
  3060 ;;		wreg, status,2, status,0, pclath, cstack
  3061 ;; Tracked objects:
  3062 ;;		On entry : 0/0
  3063 ;;		On exit  : 0/0
  3064 ;;		Unchanged: 0/0
  3065 ;; Data sizes:     COMMON   BANK0   BANK1   BANK3   BANK2
  3066 ;;      Params:         0       0       0       0       0
  3067 ;;      Locals:         0       0       0       0       0
  3068 ;;      Temps:          0       0       0       0       0
  3069 ;;      Totals:         0       0       0       0       0
  3070 ;;Total ram usage:        0 bytes
  3071 ;; Hardware stack levels used: 1
  3072 ;; Hardware stack levels required when called: 1
  3073 ;; This function calls:
  3074 ;;		_LCD_cmd
  3075 ;; This function is called by:
  3076 ;;		_main
  3077 ;; This function uses a non-reentrant model
  3078 ;;
  3079                           
  3080                           
  3081                           ;psect for function _LCD_init
  3082  0243                     _LCD_init:
  3083  0243                     l1496:	
  3084                           ;incstack = 0
  3085                           ; Regs used in _LCD_init: [wreg+status,2+status,0+pclath+cstack]
  3086                           
  3087                           
  3088                           ;main.c: 97:     LCD_cmd(0x02);
  3089  0243  3002               	movlw	2
  3090  0244  120A  118A  23A7  120A  118A  	fcall	_LCD_cmd
  3091                           
  3092                           ;main.c: 98:     LCD_cmd(0x28);
  3093  0249  3028               	movlw	40
  3094  024A  120A  118A  23A7  120A  118A  	fcall	_LCD_cmd
  3095                           
  3096                           ;main.c: 99:     LCD_cmd(0x0e);
  3097  024F  300E               	movlw	14
  3098  0250  120A  118A  23A7  120A  118A  	fcall	_LCD_cmd
  3099                           
  3100                           ;main.c: 100:     LCD_cmd(0x06);
  3101  0255  3006               	movlw	6
  3102  0256  120A  118A  23A7  120A  118A  	fcall	_LCD_cmd
  3103                           
  3104                           ;main.c: 101:     LCD_cmd(0x80);
  3105  025B  3080               	movlw	128
  3106  025C  120A  118A  23A7  120A  118A  	fcall	_LCD_cmd
  3107  0261                     l92:
  3108  0261  0008               	return
  3109  0262                     __end_of_LCD_init:
  3110                           
  3111                           	psect	text12
  3112  03A7                     __ptext12:	
  3113 ;; *************** function _LCD_cmd *****************
  3114 ;; Defined at:
  3115 ;;		line 104 in file "main.c"
  3116 ;; Parameters:    Size  Location     Type
  3117 ;;  cmd             1    wreg     unsigned char 
  3118 ;; Auto vars:     Size  Location     Type
  3119 ;;  cmd             1    2[COMMON] unsigned char 
  3120 ;; Return value:  Size  Location     Type
  3121 ;;                  1    wreg      void 
  3122 ;; Registers used:
  3123 ;;		wreg, status,2, status,0
  3124 ;; Tracked objects:
  3125 ;;		On entry : 0/0
  3126 ;;		On exit  : 0/0
  3127 ;;		Unchanged: 0/0
  3128 ;; Data sizes:     COMMON   BANK0   BANK1   BANK3   BANK2
  3129 ;;      Params:         0       0       0       0       0
  3130 ;;      Locals:         1       0       0       0       0
  3131 ;;      Temps:          2       0       0       0       0
  3132 ;;      Totals:         3       0       0       0       0
  3133 ;;Total ram usage:        3 bytes
  3134 ;; Hardware stack levels used: 1
  3135 ;; This function calls:
  3136 ;;		Nothing
  3137 ;; This function is called by:
  3138 ;;		_main
  3139 ;;		_LCD_init
  3140 ;;		_fetch_sizes
  3141 ;;		_lookuptable
  3142 ;;		_display_data
  3143 ;;		_rotation
  3144 ;;		_result_display
  3145 ;;		_welcome_text
  3146 ;; This function uses a non-reentrant model
  3147 ;;
  3148                           
  3149                           
  3150                           ;psect for function _LCD_cmd
  3151  03A7                     _LCD_cmd:
  3152                           
  3153                           ;incstack = 0
  3154                           ; Regs used in _LCD_cmd: [wreg+status,2+status,0]
  3155                           ;LCD_cmd@cmd stored from wreg
  3156  03A7  00F2               	movwf	LCD_cmd@cmd
  3157  03A8                     l1312:
  3158                           
  3159                           ;main.c: 104: void LCD_cmd(unsigned char cmd);main.c: 105: {;main.c: 106:     RC2=0;
  3160  03A8  1283               	bcf	3,5	;RP0=0, select bank0
  3161  03A9  1303               	bcf	3,6	;RP1=0, select bank0
  3162  03AA  1107               	bcf	7,2	;volatile
  3163  03AB                     l1314:
  3164                           
  3165                           ;main.c: 107:    _delay((unsigned long)((10)*(20000000/4000.0)));
  3166  03AB  3041               	movlw	65
  3167  03AC  00F1               	movwf	??_LCD_cmd+1
  3168  03AD  30EE               	movlw	238
  3169  03AE  00F0               	movwf	??_LCD_cmd
  3170  03AF                     u1957:
  3171  03AF  0BF0               	decfsz	??_LCD_cmd,f
  3172  03B0  2BAF               	goto	u1957
  3173  03B1  0BF1               	decfsz	??_LCD_cmd+1,f
  3174  03B2  2BAF               	goto	u1957
  3175  03B3  0000               	nop
  3176                           
  3177                           ;main.c: 108:    PORTC =(cmd);
  3178  03B4  0872               	movf	LCD_cmd@cmd,w
  3179  03B5  1283               	bcf	3,5	;RP0=0, select bank0
  3180  03B6  1303               	bcf	3,6	;RP1=0, select bank0
  3181  03B7  0087               	movwf	7	;volatile
  3182  03B8                     l1316:
  3183                           
  3184                           ;main.c: 109:    RC3=1;
  3185  03B8  1587               	bsf	7,3	;volatile
  3186                           
  3187                           ;main.c: 110:    _delay((unsigned long)((10)*(20000000/4000.0)));
  3188  03B9  3041               	movlw	65
  3189  03BA  00F1               	movwf	??_LCD_cmd+1
  3190  03BB  30EE               	movlw	238
  3191  03BC  00F0               	movwf	??_LCD_cmd
  3192  03BD                     u1967:
  3193  03BD  0BF0               	decfsz	??_LCD_cmd,f
  3194  03BE  2BBD               	goto	u1967
  3195  03BF  0BF1               	decfsz	??_LCD_cmd+1,f
  3196  03C0  2BBD               	goto	u1967
  3197  03C1  0000               	nop
  3198  03C2                     l1318:
  3199                           
  3200                           ;main.c: 111:    RC3=0;
  3201  03C2  1283               	bcf	3,5	;RP0=0, select bank0
  3202  03C3  1303               	bcf	3,6	;RP1=0, select bank0
  3203  03C4  1187               	bcf	7,3	;volatile
  3204                           
  3205                           ;main.c: 112:    _delay((unsigned long)((10)*(20000000/4000.0)));
  3206  03C5  3041               	movlw	65
  3207  03C6  00F1               	movwf	??_LCD_cmd+1
  3208  03C7  30EE               	movlw	238
  3209  03C8  00F0               	movwf	??_LCD_cmd
  3210  03C9                     u1977:
  3211  03C9  0BF0               	decfsz	??_LCD_cmd,f
  3212  03CA  2BC9               	goto	u1977
  3213  03CB  0BF1               	decfsz	??_LCD_cmd+1,f
  3214  03CC  2BC9               	goto	u1977
  3215  03CD  0000               	nop
  3216  03CE                     l1320:
  3217                           
  3218                           ;main.c: 113:    PORTC=(cmd<<4);
  3219  03CE  0872               	movf	LCD_cmd@cmd,w
  3220  03CF  00F0               	movwf	??_LCD_cmd
  3221  03D0  3003               	movlw	3
  3222  03D1                     u955:
  3223  03D1  1003               	clrc
  3224  03D2  0DF0               	rlf	??_LCD_cmd,f
  3225  03D3  3EFF               	addlw	-1
  3226  03D4  1D03               	skipz
  3227  03D5  2BD1               	goto	u955
  3228  03D6  1003               	clrc
  3229  03D7  0D70               	rlf	??_LCD_cmd,w
  3230  03D8  1283               	bcf	3,5	;RP0=0, select bank0
  3231  03D9  1303               	bcf	3,6	;RP1=0, select bank0
  3232  03DA  0087               	movwf	7	;volatile
  3233  03DB                     l1322:
  3234                           
  3235                           ;main.c: 114:    RC2 =0;
  3236  03DB  1107               	bcf	7,2	;volatile
  3237  03DC                     l1324:
  3238                           
  3239                           ;main.c: 115:    RC3 =1;
  3240  03DC  1587               	bsf	7,3	;volatile
  3241  03DD                     l1326:
  3242                           
  3243                           ;main.c: 116:    _delay((unsigned long)((10)*(20000000/4000.0)));
  3244  03DD  3041               	movlw	65
  3245  03DE  00F1               	movwf	??_LCD_cmd+1
  3246  03DF  30EE               	movlw	238
  3247  03E0  00F0               	movwf	??_LCD_cmd
  3248  03E1                     u1987:
  3249  03E1  0BF0               	decfsz	??_LCD_cmd,f
  3250  03E2  2BE1               	goto	u1987
  3251  03E3  0BF1               	decfsz	??_LCD_cmd+1,f
  3252  03E4  2BE1               	goto	u1987
  3253  03E5  0000               	nop
  3254  03E6                     l1328:
  3255                           
  3256                           ;main.c: 117:    RC3 =0;
  3257  03E6  1283               	bcf	3,5	;RP0=0, select bank0
  3258  03E7  1303               	bcf	3,6	;RP1=0, select bank0
  3259  03E8  1187               	bcf	7,3	;volatile
  3260  03E9                     l1330:
  3261                           
  3262                           ;main.c: 118:    _delay((unsigned long)((10)*(20000000/4000.0)));
  3263  03E9  3041               	movlw	65
  3264  03EA  00F1               	movwf	??_LCD_cmd+1
  3265  03EB  30EE               	movlw	238
  3266  03EC  00F0               	movwf	??_LCD_cmd
  3267  03ED                     u1997:
  3268  03ED  0BF0               	decfsz	??_LCD_cmd,f
  3269  03EE  2BED               	goto	u1997
  3270  03EF  0BF1               	decfsz	??_LCD_cmd+1,f
  3271  03F0  2BED               	goto	u1997
  3272  03F1  0000               	nop
  3273  03F2                     l95:
  3274  03F2  0008               	return
  3275  03F3                     __end_of_LCD_cmd:
  3276  007E                     btemp	set	126	;btemp
  3277  007E                     wtemp0	set	126
  3278                           
  3279                           	psect	idloc
  3280                           
  3281                           ;Config register IDLOC0 @ 0x2000
  3282                           ;	unspecified, using default values
  3283  2000                     	org	8192
  3284  2000  3FFF               	dw	16383
  3285                           
  3286                           ;Config register IDLOC1 @ 0x2001
  3287                           ;	unspecified, using default values
  3288  2001                     	org	8193
  3289  2001  3FFF               	dw	16383
  3290                           
  3291                           ;Config register IDLOC2 @ 0x2002
  3292                           ;	unspecified, using default values
  3293  2002                     	org	8194
  3294  2002  3FFF               	dw	16383
  3295                           
  3296                           ;Config register IDLOC3 @ 0x2003
  3297                           ;	unspecified, using default values
  3298  2003                     	org	8195
  3299  2003  3FFF               	dw	16383
  3300                           
  3301                           	psect	config
  3302                           
  3303                           ;Config register CONFIG @ 0x2007
  3304                           ;	Oscillator Selection bits
  3305                           ;	FOSC = HS, HS oscillator
  3306                           ;	Watchdog Timer Enable bit
  3307                           ;	WDTE = OFF, WDT disabled
  3308                           ;	Power-up Timer Enable bit
  3309                           ;	PWRTE = OFF, PWRT disabled
  3310                           ;	Brown-out Reset Enable bit
  3311                           ;	BOREN = ON, BOR enabled
  3312                           ;	Low-Voltage (Single-Supply) In-Circuit Serial Programming Enable bit
  3313                           ;	LVP = ON, RB3/PGM pin has PGM function; low-voltage programming enabled
  3314                           ;	Data EEPROM Memory Code Protection bit
  3315                           ;	CPD = OFF, Data EEPROM code protection off
  3316                           ;	Flash Program Memory Write Enable bits
  3317                           ;	WRT = OFF, Write protection off; all program memory may be written to by EECON control
  3318                           ;	In-Circuit Debugger Mode bit
  3319                           ;	DEBUG = 0x1, unprogrammed default
  3320                           ;	Flash Program Memory Code Protection bit
  3321                           ;	CP = OFF, Code protection off
  3322  2007                     	org	8199
  3323  2007  3FFA               	dw	16378

Data Sizes:
    Strings     266
    Constant    0
    Data        52
    BSS         14
    Persistent  0
    Stack       0

Auto Spaces:
    Space          Size  Autos    Used
    COMMON           14     12      14
    BANK0            80     14      78
    BANK1            80      0       0
    BANK3            96      0       0
    BANK2            96      0       0

Pointer List with Targets:

    show@s	PTR unsigned char  size(2) Largest target is 23
		 -> STR_15(CODE[20]), STR_14(CODE[20]), STR_13(CODE[20]), STR_12(CODE[10]), 
		 -> STR_11(CODE[18]), STR_10(CODE[18]), STR_9(CODE[15]), STR_8(CODE[18]), 
		 -> STR_7(CODE[12]), STR_6(CODE[14]), STR_5(CODE[15]), STR_4(CODE[21]), 
		 -> STR_3(CODE[21]), STR_2(CODE[21]), STR_1(CODE[23]), 


Critical Paths under _main in COMMON

    _main->_LCD_num
    _fetch_sizes->_show
    _show->_LCD_dat
    _attach_sizes->___bmul
    _LCD_num->___lwdiv
    _LCD_init->_LCD_cmd

Critical Paths under _main in BANK0

    _main->_LCD_num

Critical Paths under _main in BANK1

    None.

Critical Paths under _main in BANK3

    None.

Critical Paths under _main in BANK2

    None.

Call Graph Tables:

 ---------------------------------------------------------------------------------
 (Depth) Function   	        Calls       Base Space   Used Autos Params    Refs
 ---------------------------------------------------------------------------------
 (0) _main                                                 4     4      0    5230
                                             10 COMMON     2     2      0
                            _LCD_cmd
                           _LCD_init
                            _LCD_num
                       _attach_sizes
                        _fetch_sizes
                            _keyinit
 ---------------------------------------------------------------------------------
 (1) _keyinit                                              0     0      0       0
 ---------------------------------------------------------------------------------
 (1) _fetch_sizes                                          3     3      0    1317
                                              5 COMMON     3     3      0
                            _LCD_cmd
                            _LCD_dat
                                _key
                               _show
 ---------------------------------------------------------------------------------
 (2) _show                                                 2     0      2    1229
                                              3 COMMON     2     0      2
                            _LCD_dat
 ---------------------------------------------------------------------------------
 (2) _key                                                  3     3      0       0
                                              0 COMMON     3     3      0
 ---------------------------------------------------------------------------------
 (1) _attach_sizes                                         5     5      0     367
                                              4 COMMON     5     5      0
                             ___bmul
 ---------------------------------------------------------------------------------
 (2) ___bmul                                               4     3      1     320
                                              0 COMMON     4     3      1
 ---------------------------------------------------------------------------------
 (1) _LCD_num                                             16    14      2    3433
                                              8 COMMON     2     0      2
                                              0 BANK0     14    14      0
                            _LCD_dat
                            ___lwdiv
                            ___lwmod
 ---------------------------------------------------------------------------------
 (2) ___lwmod                                              6     2      4    1071
                                              0 COMMON     6     2      4
 ---------------------------------------------------------------------------------
 (2) ___lwdiv                                              8     4      4    1378
                                              0 COMMON     8     4      4
 ---------------------------------------------------------------------------------
 (3) _LCD_dat                                              3     3      0      44
                                              0 COMMON     3     3      0
 ---------------------------------------------------------------------------------
 (1) _LCD_init                                             0     0      0      44
                            _LCD_cmd
 ---------------------------------------------------------------------------------
 (2) _LCD_cmd                                              3     3      0      44
                                              0 COMMON     3     3      0
 ---------------------------------------------------------------------------------
 Estimated maximum stack depth 3
 ---------------------------------------------------------------------------------

 Call Graph Graphs:

 _main (ROOT)
   _LCD_cmd
   _LCD_init
     _LCD_cmd
   _LCD_num
     _LCD_dat
     ___lwdiv
     ___lwmod
   _attach_sizes
     ___bmul
   _fetch_sizes
     _LCD_cmd
     _LCD_dat
     _key
     _show
       _LCD_dat
   _keyinit

 Address spaces:
Name               Size   Autos  Total    Cost      Usage
BANK3               60      0       0       9        0.0%
BITBANK3            60      0       0       8        0.0%
SFR3                 0      0       0       4        0.0%
BITSFR3              0      0       0       4        0.0%
BANK2               60      0       0      11        0.0%
BITBANK2            60      0       0      10        0.0%
SFR2                 0      0       0       5        0.0%
BITSFR2              0      0       0       5        0.0%
BANK1               50      0       0       7        0.0%
BITBANK1            50      0       0       6        0.0%
SFR1                 0      0       0       2        0.0%
BITSFR1              0      0       0       2        0.0%
BANK0               50      E      4E       5       97.5%
BITBANK0            50      0       0       4        0.0%
SFR0                 0      0       0       1        0.0%
BITSFR0              0      0       0       1        0.0%
COMMON               E      C       E       1      100.0%
BITCOMMON            E      0       0       0        0.0%
CODE                 0      0       0       0        0.0%
DATA                 0      0      5C      12        0.0%
ABS                  0      0      5C       3        0.0%
NULL                 0      0       0       0        0.0%
STACK                0      0       0       2        0.0%
EEDATA             100      0       0       0        0.0%


Microchip Technology PIC Macro Assembler V2.32 build 20210201212658 
Symbol Table                                                                                   Wed May 25 10:12:43 2022

                      pc 0002           ___bmul@product 0072                       l92 0261  
                     l84 0325                       l85 0325                       l95 03F2  
                     l98 043E                       _b1 007D                       _b2 0069  
                     _c1 007C                       _c2 0068                       _n1 0067  
                     _n2 0066                       _bs 0065                       _cs 0064  
                     fsr 0004                      l110 0505                      l120 05DC  
                    l104 0287                      l121 0576                      l130 05EE  
                    l211 07DF                      l123 0573                      l115 05CC  
                    l107 021A                      l140 064D                      l132 0601  
                    l124 05A1                      l133 062B                      l117 054D  
                    l134 0616                      l207 07DF                      l143 0501  
                    l137 062B                      l326 0242                      l188 02F0  
                    l572 03A6                      l582 0362                      _RB1 0031  
                    _RC2 003A                      _RD0 0040                      _RB4 0034  
                    _RC3 003B                      _RD1 0041                      _RD2 0042  
                    _RD3 0043                      _RB7 0037                      _RD4 0044  
                    _RD5 0045                      _RD6 0046                      _RD7 0047  
                    u960 0287                      u945 041D                      u961 0286  
                    u970 0509                      u955 03D1                      u971 0508  
                    u980 050D                      u981 050C                      u990 0511  
                    u991 0510                      _key 0502                      fsr0 0004  
                    indf 0000            ?_attach_sizes 0070          __end_of_LCD_dat 043F  
        __end_of_LCD_cmd 03F3          __end_of_LCD_num 07E0                     l1042 0213  
                   l1300 041A                     l1044 0217                     l1310 0435  
                   l1302 0427                     l1320 03CE                     l1312 03A8  
                   l1304 0428                     l1400 05F2                     l1330 03E9  
                   l1322 03DB                     l1314 03AB                     l1306 0429  
                   l1410 0609                     l1402 05F6                     l1324 03DC  
                   l1316 03B8                     l1308 0432                     l1420 0622  
                   l1412 060D                     l1404 05FA                     l1340 0502  
                   l1332 0262                     l1500 044B                     l1326 03DD  
                   l1318 03C2                     l1430 063B                     l1422 0626  
                   l1414 0611                     l1406 05FE                     l1350 0523  
                   l1342 0509                     l1334 0263                     l1510 0472  
                   l1502 0454                     l1328 03E6                     l1600 07BC  
                   l1440 0238                     l1424 062F                     l1416 061A  
                   l1408 0605                     l1360 0547                     l1352 0526  
                   l1344 050D                     l1336 0271                     l1520 049C  
                   l1512 047F                     l1504 045C                     l1450 0365  
                   l1602 07C3                     l1442 023A                     l1434 022F  
                   l1426 0633                     l1418 061E                     l1370 0590  
                   l1362 054B                     l1354 053B                     l1346 0511  
                   l1338 0277                     l1530 04D4                     l1522 04A2  
                   l1514 0485                     l1506 0462                     l1610 02F5  
                   l1292 03F4                     l1460 037D                     l1452 036B  
                   l1604 07CC                     l1444 0241                     l1436 0230  
                   l1540 02BC                     l1428 0637                     l1380 05BF  
                   l1372 0594                     l1364 0567                     l1356 053F  
                   l1348 0516                     l1532 04DE                     l1524 04AC  
                   l1516 048B                     l1508 046C                     l1620 0313  
                   l1612 02FA                     l1294 03F7                     l1462 038E  
                   l1454 036E                     l1470 03A2                     l1606 07D5  
                   l1550 0657                     l1438 0234                     l1542 02DC  
                   l1390 05D8                     l1382 05C3                     l1374 0598  
                   l1366 056B                     l1358 0543                     l1534 04E4  
                   l1526 04B2                     l1518 0494                     l1622 0319  
                   l1614 0300                     l1296 0404                     l1464 0394  
                   l1456 0375                     l1448 0363                     l1480 0339  
                   l1560 0688                     l1552 065F                     l1544 02E0  
                   l1392 05E0                     l1384 05C7                     l1376 059C  
                   l1368 056F                     l1536 04EE                     l1528 04CB  
                   l1616 0305                     l1608 02F1                     l1298 040E  
                   l1466 0395                     l1458 0379                     l1490 0358  
                   l1482 033D                     l1474 0329                     l1570 06BE  
                   l1562 069B                     l1554 0668                     l1394 05E4  
                   l1386 05D0                     l1378 05BB                     l1538 04F4  
                   l1618 030D                     l1468 039C                     l1484 0341  
                   l1476 032F                     l1492 035E                     l1580 0719  
                   l1572 06E4                     l1564 06A2                     l1556 0671  
                   l1548 064E                     l1396 05E8                     l1388 05D4  
                   l1486 034B                     l1478 0332                     l1590 0764  
                   l1582 0722                     l1574 06E8                     l1558 0684  
                   l1566 06AC                     l1398 05EC                     l1496 0243  
                   l1488 0351                     l1592 0768                     l1576 06FF  
                   l1568 06B5                     l1584 072C                     l1594 077F  
                   l1586 0735                     l1578 0712                     l1498 043F  
                   l1596 0792                     l1588 073E                     l1598 07A9  
                   ?_key 0070                     STR_1 0800                     STR_2 082C  
                   STR_3 0841                     STR_4 0817                     STR_5 08C8  
                   STR_6 08E6                     STR_7 08F4                     STR_8 0892  
                   STR_9 08D7                     u1000 0515                     u1001 0514  
                   u1010 052E                     u1011 052A                     u1020 0538  
                   u1021 0534                     u1110 0567                     u1111 0566  
                   u1200 0598                     u1120 056B                     u1104 0563  
                   u1040 053F                     u1024 0531                     u1201 0597  
                   u1121 056A                     u1041 053E                     u1210 059C  
                   u1130 056F                     u1050 0543                     u1034 053B  
                   u1211 059B                     u1131 056E                     u1051 0542  
                   u1300 05D4                     u1220 05AA                     u1140 0573  
                   u1060 0547                     u1301 05D3                     u1221 05A6  
                   u1141 0572                     u1061 0546                     u1310 05D8  
                   u1230 05B4                     u1150 057F                     u1070 054B  
                   u1311 05D7                     u1231 05B0                     u1151 057B  
                   u1071 054A                     u1400 05FE                     u1320 05DC  
                   u1160 0589                     u1080 0556                     u1401 05FD  
                   u1321 05DB                     u1161 0585                     u1081 0552  
                   u1410 0605                     u1330 05E0                     u1250 05BB  
                   u1234 05AD                     u1090 0560                     u1411 0604  
                   u1331 05DF                     u1251 05BA                     u1091 055C  
                   u1500 0633                     u1420 0609                     u1340 05E4  
                   u1260 05BF                     u1244 05B7                     u1180 0590  
                   u1164 0582                     u1501 0632                     u1421 0608  
                   u1341 05E3                     u1261 05BE                     u1181 058F  
                   u1510 0637                     u1430 060D                     u1350 05E8  
                   u1270 05C3                     u1190 0594                     u1174 058C  
                   u1094 0559                     u1511 0636                     u1431 060C  
                   u1351 05E7                     u1271 05C2                     u1191 0593  
                   u1600 038E                     u1520 063B                     u1440 0611  
                   u1360 05EC                     u1280 05C7                     u1601 038D  
                   u1521 063A                     u1441 0610                     u1361 05EB  
                   u1281 05C6                     u1450 061A                     u1370 05F2  
                   u1290 05D0                     u1451 0619                     u1371 05F1  
                   u1291 05CF                     u1620 03A2                     u1700 0668  
                   u1540 0234                     u1460 061E                     u1380 05F6  
                   u1621 03A1                     u1605 038A                     u1701 0667  
                   u1541 0233                     u1461 061D                     u1381 05F5  
                   u1630 032F                     u1710 0671                     u1550 0241  
                   u1470 0622                     u1390 05FA                     u1615 0396  
                   u1631 032E                     u1711 0670                     u1551 0240  
                   u1535 063E                     u1471 0621                     u1391 05F9  
                   u1560 036B                     u1720 06B5                     u1480 0626  
                   u1561 036A                     u1721 06B4                     u1481 0625  
                   u1650 0341                     u1730 06BE                     u1490 062F  
                   u1651 0340                     u1731 06BD                     u1491 062E  
                   u1580 037D                     u1660 034B                     u1740 0735  
                   u1581 037C                     u1661 034A                     u1645 0333  
                   u1741 0734                     u1750 073E                     u1575 036F  
                   u1751 073D                     u1680 035E                     u1681 035D  
                   u1665 0347                     u1690 0657                     u1907 03FB  
                   u1595 037E                     u1675 0352                     u1691 0656  
                   u1917 0409                     u1927 0415                     u1937 042D  
                   u1947 0439                     u1867 0478                     u1957 03AF  
                   u1877 04B8                     u1967 03BD                     u1887 04FA  
                   u1977 03C9                     u1897 051C                     u1987 03E1  
                   u1997 03ED                     _main 02F1                     _show 0262  
                   btemp 007E                     start 0000        ___bmul@multiplier 0073  
                  ??_key 0070         __end_of_LCD_init 0262                    ?_main 0070  
                  STR_10 08B6                    STR_11 08A4                    STR_12 0900  
                  STR_13 086A                    STR_14 087E                    STR_15 0856  
                  ?_show 0073          __end_of___lwdiv 03A7          __end_of___lwmod 0363  
                  _PORTC 0007                    _PORTD 0008                    _TRISB 0086  
                  _TRISC 0087                    _TRISD 0088           ??_attach_sizes 0074  
            LCD_dat@data 0072                    _errno 0062          __end_of_keyinit 021B  
                  pclath 000A                    show@s 0073                    status 0003  
                  wtemp0 007E          __initialization 07E0             __end_of_main 0329  
           __end_of_show 0288                   ??_main 007A                   ??_show 0075  
         LCD_num@result1 005E                ??_LCD_dat 0070                ??_LCD_cmd 0070  
              ??_LCD_num 007A     __size_of_fetch_sizes 00C3                   ___bmul 022E  
              ??___lwdiv 0074                ??___lwmod 0074                   _colloc 006C  
                 _keypad 0020                   _rowloc 006D                   main@nt 007B  
              ??_keyinit 0070  __end_of__initialization 07FC                ?_LCD_init 0070  
    ___bmul@multiplicand 0070     __end_of_attach_sizes 02F1           __pcstackCOMMON 0070  
           __pidataBANK0 0288               __pbssBANK0 0062               ??_LCD_init 0073  
             __pmaintext 02F1                  ?___bmul 0070                  _LCD_dat 03F3  
                _LCD_cmd 03A7                  _LCD_num 064E               __stringtab 0003  
        __size_of___bmul 0015                  ___lwdiv 0363                  ___lwmod 0329  
                __ptext1 0213                  __ptext2 043F                  __ptext3 0262  
                __ptext4 0502                  __ptext5 02BC                  __ptext6 022E  
                __ptext7 064E                  __ptext8 0329                  __ptext9 0363  
           __size_of_key 014C                  _keyinit 0213     end_of_initialization 07FC  
  __size_of_attach_sizes 0035             __pstringtext 0800          lookuptable@F994 0050  
        lookuptable@F996 004C          lookuptable@F998 0048             _attach_sizes 02BC  
          ??_fetch_sizes 0075        __size_of_LCD_init 001F           __end_of___bmul 0243  
         attach_sizes@n3 0077           attach_sizes@n4 0078           attach_sizes@er 0076  
             LCD_cmd@cmd 0072      start_initialization 07E0              __end_of_key 064E  
          LCD_num@digit1 005A            LCD_num@digit2 005C            LCD_num@digit3 0058  
          LCD_num@digit4 0054               LCD_num@val 0078            LCD_num@result 0056  
    __end_of_fetch_sizes 0502                 ??___bmul 0071               init_fetch0 021B  
            __pdataBANK0 0020         LCD_num@remainder 0060                 ?_LCD_dat 0070  
               ?_LCD_cmd 0070                 ?_LCD_num 0078              __pbssCOMMON 007C  
              ___latbits 0002            __pcstackBANK0 0054         ___lwdiv@dividend 0072  
               ?___lwdiv 0070                 ?___lwmod 0070                __pstrings 0003  
               ?_keyinit 0070         ___lwdiv@quotient 0075              _fetch_sizes 043F  
               _LCD_init 0243              __stringbase 0015         __size_of_LCD_dat 004C  
       __size_of_LCD_cmd 004C         __size_of_LCD_num 0192                _turn_time 006A  
       __size_of___lwdiv 0044         __size_of___lwmod 003A       __end_of__stringtab 0015  
       __size_of_keyinit 0008          ___lwdiv@divisor 0070          ___lwdiv@counter 0077  
               __ptext10 03F3                 __ptext11 0243                 __ptext12 03A7  
          __size_of_main 0038            __size_of_show 0026                 _no_turns 006B  
               init_ram0 021F         ___lwmod@dividend 0072                stringcode 000D  
        ___lwmod@divisor 0070          ___lwmod@counter 0075                 stringtab 0003  
           ?_fetch_sizes 0070         lookuptable@F1000 0044         lookuptable@F1002 0040  
       lookuptable@F1010 0030         lookuptable@F1004 003C         lookuptable@F1006 0038  
       lookuptable@F1008 0034  
