

Microchip MPLAB XC8 Assembler V2.32 build 20210201212658 
                                                                                               Wed May 25 15:23:30 2022

Microchip MPLAB XC8 C Compiler v2.32 (Free license) build 20210201212658 Og1 
     1                           	processor	16F877A
     2                           	pagewidth 120
     3                           	opt	flic
     4                           	psect	idataBANK1,global,class=CODE,delta=2,noexec
     5                           	psect	strings,global,class=STRING,delta=2,noexec
     6                           	psect	stringtext,global,reloc=256,class=STRCODE,delta=2,noexec
     7                           	psect	cinit,global,class=CODE,merge=1,delta=2
     8                           	psect	bssBANK0,global,class=BANK0,space=1,delta=1,noexec
     9                           	psect	bssBANK1,global,class=BANK1,space=1,delta=1,noexec
    10                           	psect	dataBANK1,global,class=BANK1,space=1,delta=1,noexec
    11                           	psect	inittext,global,class=CODE,delta=2
    12                           	psect	cstackCOMMON,global,class=COMMON,space=1,delta=1,noexec
    13                           	psect	cstackBANK0,global,class=BANK0,space=1,delta=1,noexec
    14                           	psect	maintext,global,class=CODE,split=1,delta=2
    15                           	psect	text1,local,class=CODE,merge=1,delta=2
    16                           	psect	text2,local,class=CODE,merge=1,delta=2
    17                           	psect	text3,local,class=CODE,merge=1,delta=2
    18                           	psect	text4,local,class=CODE,merge=1,delta=2
    19                           	psect	text5,local,class=CODE,merge=1,delta=2,group=2
    20                           	psect	text6,local,class=CODE,merge=1,delta=2,group=2
    21                           	psect	text7,local,class=CODE,merge=1,delta=2,group=2
    22                           	psect	text8,local,class=CODE,merge=1,delta=2,group=1
    23                           	psect	text9,local,class=CODE,merge=1,delta=2,group=1
    24                           	psect	text10,local,class=CODE,merge=1,delta=2,group=1
    25                           	psect	text11,local,class=CODE,merge=1,delta=2,group=1
    26                           	psect	text12,local,class=CODE,merge=1,delta=2,group=1
    27                           	psect	text13,local,class=CODE,merge=1,delta=2
    28                           	psect	text14,local,class=CODE,merge=1,delta=2
    29                           	psect	text15,local,class=CODE,merge=1,delta=2
    30                           	psect	text16,local,class=CODE,merge=1,delta=2
    31                           	psect	text17,local,class=CODE,merge=1,delta=2
    32                           	psect	text18,local,class=CODE,merge=1,delta=2
    33                           	psect	text19,local,class=CODE,merge=1,delta=2
    34                           	psect	text20,local,class=CODE,merge=1,delta=2
    35                           	psect	text21,local,class=CODE,merge=1,delta=2,group=1
    36                           	psect	text22,local,class=CODE,merge=1,delta=2,group=1
    37                           	psect	text23,local,class=CODE,merge=1,delta=2
    38                           	psect	text24,local,class=CODE,merge=1,delta=2
    39                           	psect	text25,local,class=CODE,merge=1,delta=2,group=1
    40                           	psect	text26,local,class=CODE,merge=1,delta=2
    41                           	psect	text27,local,class=CODE,merge=1,delta=2
    42                           	psect	idloc,global,abs,ovrld,class=IDLOC,space=5,delta=2,noexec
    43                           	psect	config,global,abs,ovrld,class=CONFIG,space=4,delta=2,noexec
    44                           	dabs	1,0x7E,2
    45  0000                     
    46                           ; Version 2.40
    47                           ; Generated 17/11/2021 GMT
    48                           ; 
    49                           ; Copyright © 2021, Microchip Technology Inc. and its subsidiaries ("Microchip")
    50                           ; All rights reserved.
    51                           ; 
    52                           ; This software is developed by Microchip Technology Inc. and its subsidiaries ("Microch
      +                          ip").
    53                           ; 
    54                           ; Redistribution and use in source and binary forms, with or without modification, are
    55                           ; permitted provided that the following conditions are met:
    56                           ; 
    57                           ;     1. Redistributions of source code must retain the above copyright notice, this lis
      +                          t of
    58                           ;        conditions and the following disclaimer.
    59                           ; 
    60                           ;     2. Redistributions in binary form must reproduce the above copyright notice, this 
      +                          list
    61                           ;        of conditions and the following disclaimer in the documentation and/or other
    62                           ;        materials provided with the distribution. Publication is not required when
    63                           ;        this file is used in an embedded application.
    64                           ; 
    65                           ;     3. Microchip's name may not be used to endorse or promote products derived from th
      +                          is
    66                           ;        software without specific prior written permission.
    67                           ; 
    68                           ; THIS SOFTWARE IS PROVIDED BY MICROCHIP "AS IS" AND ANY EXPRESS OR IMPLIED WARRANTIES,
    69                           ; INCLUDING, BUT NOT LIMITED TO, THE IMPLIED WARRANTIES OF MERCHANTABILITY AND FITNESS F
      +                          OR
    70                           ; PURPOSE ARE DISCLAIMED.  IN NO EVENT SHALL MICROCHIP BE LIABLE FOR ANY DIRECT, INDIREC
      +                          T,
    71                           ; INCIDENTAL, SPECIAL, EXEMPLARY, OR CONSEQUENTIAL DAMAGES (INCLUDING BUT NOT LIMITED TO
    72                           ; PROCUREMENT OF SUBSTITUTE GOODS OR SERVICES; LOSS OF USE, DATA OR PROFITS; OR BUSINESS
    73                           ; INTERRUPTION) HOWSOEVER CAUSED AND ON ANY THEORY OF LIABILITY, WHETHER IN CONTRACT, ST
      +                          RICT
    74                           ; LIABILITY, OR TORT (INCLUDING NEGLIGENCE OR OTHERWISE) ARISING IN ANY WAY OUT OF THE U
      +                          SE OF
    75                           ; THIS SOFTWARE, EVEN IF ADVISED OF THE POSSIBILITY OF SUCH DAMAGE.
    76                           ; 
    77                           ; 
    78                           ; Code-generator required, PIC16F877A Definitions
    79                           ; 
    80                           ; SFR Addresses
    81  0000                     	;# 
    82  0001                     	;# 
    83  0002                     	;# 
    84  0003                     	;# 
    85  0004                     	;# 
    86  0005                     	;# 
    87  0006                     	;# 
    88  0007                     	;# 
    89  0008                     	;# 
    90  0009                     	;# 
    91  000A                     	;# 
    92  000B                     	;# 
    93  000C                     	;# 
    94  000D                     	;# 
    95  000E                     	;# 
    96  000E                     	;# 
    97  000F                     	;# 
    98  0010                     	;# 
    99  0011                     	;# 
   100  0012                     	;# 
   101  0013                     	;# 
   102  0014                     	;# 
   103  0015                     	;# 
   104  0015                     	;# 
   105  0016                     	;# 
   106  0017                     	;# 
   107  0018                     	;# 
   108  0019                     	;# 
   109  001A                     	;# 
   110  001B                     	;# 
   111  001B                     	;# 
   112  001C                     	;# 
   113  001D                     	;# 
   114  001E                     	;# 
   115  001F                     	;# 
   116  0081                     	;# 
   117  0085                     	;# 
   118  0086                     	;# 
   119  0087                     	;# 
   120  0088                     	;# 
   121  0089                     	;# 
   122  008C                     	;# 
   123  008D                     	;# 
   124  008E                     	;# 
   125  0091                     	;# 
   126  0092                     	;# 
   127  0093                     	;# 
   128  0094                     	;# 
   129  0098                     	;# 
   130  0099                     	;# 
   131  009C                     	;# 
   132  009D                     	;# 
   133  009E                     	;# 
   134  009F                     	;# 
   135  010C                     	;# 
   136  010D                     	;# 
   137  010E                     	;# 
   138  010F                     	;# 
   139  018C                     	;# 
   140  018D                     	;# 
   141  0000                     	;# 
   142  0001                     	;# 
   143  0002                     	;# 
   144  0003                     	;# 
   145  0004                     	;# 
   146  0005                     	;# 
   147  0006                     	;# 
   148  0007                     	;# 
   149  0008                     	;# 
   150  0009                     	;# 
   151  000A                     	;# 
   152  000B                     	;# 
   153  000C                     	;# 
   154  000D                     	;# 
   155  000E                     	;# 
   156  000E                     	;# 
   157  000F                     	;# 
   158  0010                     	;# 
   159  0011                     	;# 
   160  0012                     	;# 
   161  0013                     	;# 
   162  0014                     	;# 
   163  0015                     	;# 
   164  0015                     	;# 
   165  0016                     	;# 
   166  0017                     	;# 
   167  0018                     	;# 
   168  0019                     	;# 
   169  001A                     	;# 
   170  001B                     	;# 
   171  001B                     	;# 
   172  001C                     	;# 
   173  001D                     	;# 
   174  001E                     	;# 
   175  001F                     	;# 
   176  0081                     	;# 
   177  0085                     	;# 
   178  0086                     	;# 
   179  0087                     	;# 
   180  0088                     	;# 
   181  0089                     	;# 
   182  008C                     	;# 
   183  008D                     	;# 
   184  008E                     	;# 
   185  0091                     	;# 
   186  0092                     	;# 
   187  0093                     	;# 
   188  0094                     	;# 
   189  0098                     	;# 
   190  0099                     	;# 
   191  009C                     	;# 
   192  009D                     	;# 
   193  009E                     	;# 
   194  009F                     	;# 
   195  010C                     	;# 
   196  010D                     	;# 
   197  010E                     	;# 
   198  010F                     	;# 
   199  018C                     	;# 
   200  018D                     	;# 
   201                           
   202                           	psect	idataBANK1
   203  094B                     __pidataBANK1:
   204                           
   205                           ;initializer for _keypad
   206  094B  3407               	retlw	7
   207  094C  3408               	retlw	8
   208  094D  3409               	retlw	9
   209  094E  342F               	retlw	47
   210  094F  3404               	retlw	4
   211  0950  3405               	retlw	5
   212  0951  3406               	retlw	6
   213  0952  342A               	retlw	42
   214  0953  3401               	retlw	1
   215  0954  3402               	retlw	2
   216  0955  3403               	retlw	3
   217  0956  342D               	retlw	45
   218  0957  3443               	retlw	67
   219  0958  3400               	retlw	0
   220  0959  343D               	retlw	61
   221  095A  342B               	retlw	43
   222                           
   223                           ;initializer for lookuptable@F1014
   224  095B  342D               	retlw	45
   225  095C  3414               	retlw	20
   226  095D  3405               	retlw	5
   227  095E  3407               	retlw	7
   228                           
   229                           ;initializer for lookuptable@F1012
   230  095F  342D               	retlw	45
   231  0960  340F               	retlw	15
   232  0961  3407               	retlw	7
   233  0962  3406               	retlw	6
   234                           
   235                           ;initializer for lookuptable@F1010
   236  0963  342D               	retlw	45
   237  0964  340A               	retlw	10
   238  0965  3408               	retlw	8
   239  0966  3405               	retlw	5
   240                           
   241                           ;initializer for lookuptable@F1008
   242  0967  3417               	retlw	23
   243  0968  3414               	retlw	20
   244  0969  3403               	retlw	3
   245  096A  3404               	retlw	4
   246                           
   247                           ;initializer for lookuptable@F1006
   248  096B  3417               	retlw	23
   249  096C  340F               	retlw	15
   250  096D  3403               	retlw	3
   251  096E  3403               	retlw	3
   252                           
   253                           ;initializer for lookuptable@F1004
   254  096F  3417               	retlw	23
   255  0970  340A               	retlw	10
   256  0971  3404               	retlw	4
   257  0972  3402               	retlw	2
   258                           
   259                           ;initializer for lookuptable@F1002
   260  0973  3411               	retlw	17
   261  0974  3414               	retlw	20
   262  0975  3401               	retlw	1
   263  0976  3403               	retlw	3
   264                           
   265                           ;initializer for lookuptable@F1000
   266  0977  3411               	retlw	17
   267  0978  340F               	retlw	15
   268  0979  3402               	retlw	2
   269  097A  3402               	retlw	2
   270                           
   271                           ;initializer for lookuptable@F998
   272  097B  3411               	retlw	17
   273  097C  340A               	retlw	10
   274  097D  3402               	retlw	2
   275  097E  3401               	retlw	1
   276  0008                     _PORTD	set	8
   277  0007                     _PORTC	set	7
   278  0031                     _RB1	set	49
   279  0034                     _RB4	set	52
   280  0037                     _RB7	set	55
   281  0043                     _RD3	set	67
   282  0042                     _RD2	set	66
   283  0041                     _RD1	set	65
   284  0040                     _RD0	set	64
   285  0047                     _RD7	set	71
   286  0046                     _RD6	set	70
   287  0045                     _RD5	set	69
   288  0044                     _RD4	set	68
   289  003B                     _RC3	set	59
   290  003A                     _RC2	set	58
   291  0088                     _TRISD	set	136
   292  0087                     _TRISC	set	135
   293  0086                     _TRISB	set	134
   294                           
   295                           	psect	strings
   296  1000                     __pstrings:
   297  1000                     stringtab:
   298  1000                     __stringtab:
   299                           
   300                           ;	String table - string pointers are 2 bytes each
   301  1000  1BFF               	btfsc	btemp+1,7
   302  1001  280A               	ljmp	stringcode
   303  1002  1383               	bcf	3,7
   304  1003  187F               	btfsc	btemp+1,0
   305  1004  1783               	bsf	3,7
   306  1005  0800               	movf	0,w
   307  1006  0A84               	incf	4,f
   308  1007  1903               	skipnz
   309  1008  0AFF               	incf	btemp+1,f
   310  1009  0008               	return
   311  100A                     stringcode:
   312  100A  087F               	movf	btemp+1,w
   313  100B  397F               	andlw	127
   314  100C  008A               	movwf	10
   315  100D  0804               	movf	4,w
   316  100E  0A84               	incf	4,f
   317  100F  1903               	skipnz
   318  1010  0AFF               	incf	btemp+1,f
   319  1011  0082               	movwf	2
   320  1012                     __stringbase:
   321  1012                     __end_of__stringtab:
   322                           
   323                           	psect	stringtext
   324  0800                     __pstringtext:
   325  0800                     STR_1:
   326  0800  3445               	retlw	69	;'E'
   327  0801  346E               	retlw	110	;'n'
   328  0802  3474               	retlw	116	;'t'
   329  0803  3465               	retlw	101	;'e'
   330  0804  3472               	retlw	114	;'r'
   331  0805  3420               	retlw	32	;' '
   332  0806  3474               	retlw	116	;'t'
   333  0807  3468               	retlw	104	;'h'
   334  0808  3465               	retlw	101	;'e'
   335  0809  3420               	retlw	32	;' '
   336  080A  3442               	retlw	66	;'B'
   337  080B  346F               	retlw	111	;'o'
   338  080C  3462               	retlw	98	;'b'
   339  080D  3462               	retlw	98	;'b'
   340  080E  3469               	retlw	105	;'i'
   341  080F  346E               	retlw	110	;'n'
   342  0810  3420               	retlw	32	;' '
   343  0811  3453               	retlw	83	;'S'
   344  0812  3469               	retlw	105	;'i'
   345  0813  347A               	retlw	122	;'z'
   346  0814  3465               	retlw	101	;'e'
   347  0815  343A               	retlw	58	;':'
   348  0816  3400               	retlw	0
   349  0817                     STR_4:
   350  0817  3449               	retlw	73	;'I'
   351  0818  346E               	retlw	110	;'n'
   352  0819  3476               	retlw	118	;'v'
   353  081A  3461               	retlw	97	;'a'
   354  081B  346C               	retlw	108	;'l'
   355  081C  3469               	retlw	105	;'i'
   356  081D  3464               	retlw	100	;'d'
   357  081E  3420               	retlw	32	;' '
   358  081F  3444               	retlw	68	;'D'
   359  0820  3461               	retlw	97	;'a'
   360  0821  3474               	retlw	116	;'t'
   361  0822  3461               	retlw	97	;'a'
   362  0823  3420               	retlw	32	;' '
   363  0824  3449               	retlw	73	;'I'
   364  0825  346E               	retlw	110	;'n'
   365  0826  3470               	retlw	112	;'p'
   366  0827  3475               	retlw	117	;'u'
   367  0828  3474               	retlw	116	;'t'
   368  0829  3421               	retlw	33	;'!'
   369  082A  3421               	retlw	33	;'!'
   370  082B  3400               	retlw	0
   371  082C                     STR_2:
   372  082C  3445               	retlw	69	;'E'
   373  082D  346E               	retlw	110	;'n'
   374  082E  3474               	retlw	116	;'t'
   375  082F  3465               	retlw	101	;'e'
   376  0830  3472               	retlw	114	;'r'
   377  0831  3420               	retlw	32	;' '
   378  0832  3474               	retlw	116	;'t'
   379  0833  3468               	retlw	104	;'h'
   380  0834  3465               	retlw	101	;'e'
   381  0835  3420               	retlw	32	;' '
   382  0836  3443               	retlw	67	;'C'
   383  0837  346F               	retlw	111	;'o'
   384  0838  3469               	retlw	105	;'i'
   385  0839  346C               	retlw	108	;'l'
   386  083A  3420               	retlw	32	;' '
   387  083B  3453               	retlw	83	;'S'
   388  083C  3469               	retlw	105	;'i'
   389  083D  347A               	retlw	122	;'z'
   390  083E  3465               	retlw	101	;'e'
   391  083F  343A               	retlw	58	;':'
   392  0840  3400               	retlw	0
   393  0841                     STR_3:
   394  0841  3445               	retlw	69	;'E'
   395  0842  346E               	retlw	110	;'n'
   396  0843  3474               	retlw	116	;'t'
   397  0844  3465               	retlw	101	;'e'
   398  0845  3472               	retlw	114	;'r'
   399  0846  3420               	retlw	32	;' '
   400  0847  3474               	retlw	116	;'t'
   401  0848  3468               	retlw	104	;'h'
   402  0849  3465               	retlw	101	;'e'
   403  084A  3420               	retlw	32	;' '
   404  084B  344E               	retlw	78	;'N'
   405  084C  346F               	retlw	111	;'o'
   406  084D  342E               	retlw	46	;'.'
   407  084E  3420               	retlw	32	;' '
   408  084F  3454               	retlw	84	;'T'
   409  0850  3475               	retlw	117	;'u'
   410  0851  3472               	retlw	114	;'r'
   411  0852  346E               	retlw	110	;'n'
   412  0853  3473               	retlw	115	;'s'
   413  0854  343A               	retlw	58	;':'
   414  0855  3400               	retlw	0
   415  0856                     STR_17:
   416  0856  3420               	retlw	32	;' '
   417  0857  3420               	retlw	32	;' '
   418  0858  3420               	retlw	32	;' '
   419  0859  3420               	retlw	32	;' '
   420  085A  3420               	retlw	32	;' '
   421  085B  3420               	retlw	32	;' '
   422  085C  344D               	retlw	77	;'M'
   423  085D  3441               	retlw	65	;'A'
   424  085E  3443               	retlw	67	;'C'
   425  085F  3448               	retlw	72	;'H'
   426  0860  3449               	retlw	73	;'I'
   427  0861  344E               	retlw	78	;'N'
   428  0862  3445               	retlw	69	;'E'
   429  0863  3420               	retlw	32	;' '
   430  0864  3420               	retlw	32	;' '
   431  0865  3420               	retlw	32	;' '
   432  0866  3420               	retlw	32	;' '
   433  0867  3420               	retlw	32	;' '
   434  0868  3420               	retlw	32	;' '
   435  0869  3400               	retlw	0
   436  086A                     STR_15:
   437  086A  3421               	retlw	33	;'!'
   438  086B  3421               	retlw	33	;'!'
   439  086C  3420               	retlw	32	;' '
   440  086D  3420               	retlw	32	;' '
   441  086E  3420               	retlw	32	;' '
   442  086F  3420               	retlw	32	;' '
   443  0870  3457               	retlw	87	;'W'
   444  0871  3445               	retlw	69	;'E'
   445  0872  344C               	retlw	76	;'L'
   446  0873  3443               	retlw	67	;'C'
   447  0874  344F               	retlw	79	;'O'
   448  0875  344D               	retlw	77	;'M'
   449  0876  3445               	retlw	69	;'E'
   450  0877  3420               	retlw	32	;' '
   451  0878  3420               	retlw	32	;' '
   452  0879  3420               	retlw	32	;' '
   453  087A  3420               	retlw	32	;' '
   454  087B  3421               	retlw	33	;'!'
   455  087C  3421               	retlw	33	;'!'
   456  087D  3400               	retlw	0
   457  087E                     STR_16:
   458  087E  3454               	retlw	84	;'T'
   459  087F  3452               	retlw	82	;'R'
   460  0880  3441               	retlw	65	;'A'
   461  0881  344E               	retlw	78	;'N'
   462  0882  3453               	retlw	83	;'S'
   463  0883  3446               	retlw	70	;'F'
   464  0884  344F               	retlw	79	;'O'
   465  0885  3452               	retlw	82	;'R'
   466  0886  344D               	retlw	77	;'M'
   467  0887  3445               	retlw	69	;'E'
   468  0888  3452               	retlw	82	;'R'
   469  0889  3420               	retlw	32	;' '
   470  088A  3457               	retlw	87	;'W'
   471  088B  3449               	retlw	73	;'I'
   472  088C  344E               	retlw	78	;'N'
   473  088D  3444               	retlw	68	;'D'
   474  088E  3449               	retlw	73	;'I'
   475  088F  344E               	retlw	78	;'N'
   476  0890  3447               	retlw	71	;'G'
   477  0891  3400               	retlw	0
   478  0892                     STR_8:
   479  0892  3454               	retlw	84	;'T'
   480  0893  346F               	retlw	111	;'o'
   481  0894  3474               	retlw	116	;'t'
   482  0895  3461               	retlw	97	;'a'
   483  0896  346C               	retlw	108	;'l'
   484  0897  3420               	retlw	32	;' '
   485  0898  344E               	retlw	78	;'N'
   486  0899  346F               	retlw	111	;'o'
   487  089A  342E               	retlw	46	;'.'
   488  089B  3420               	retlw	32	;' '
   489  089C  3454               	retlw	84	;'T'
   490  089D  3475               	retlw	117	;'u'
   491  089E  3472               	retlw	114	;'r'
   492  089F  346E               	retlw	110	;'n'
   493  08A0  3473               	retlw	115	;'s'
   494  08A1  343A               	retlw	58	;':'
   495  08A2  3420               	retlw	32	;' '
   496  08A3  3400               	retlw	0
   497  08A4                     STR_13:
   498  08A4  3454               	retlw	84	;'T'
   499  08A5  346F               	retlw	111	;'o'
   500  08A6  3474               	retlw	116	;'t'
   501  08A7  3461               	retlw	97	;'a'
   502  08A8  346C               	retlw	108	;'l'
   503  08A9  3420               	retlw	32	;' '
   504  08AA  3454               	retlw	84	;'T'
   505  08AB  3469               	retlw	105	;'i'
   506  08AC  346D               	retlw	109	;'m'
   507  08AD  3465               	retlw	101	;'e'
   508  08AE  3420               	retlw	32	;' '
   509  08AF  3454               	retlw	84	;'T'
   510  08B0  3461               	retlw	97	;'a'
   511  08B1  346B               	retlw	107	;'k'
   512  08B2  3465               	retlw	101	;'e'
   513  08B3  346E               	retlw	110	;'n'
   514  08B4  343A               	retlw	58	;':'
   515  08B5  3400               	retlw	0
   516  08B6                     STR_12:
   517  08B6  3457               	retlw	87	;'W'
   518  08B7  3469               	retlw	105	;'i'
   519  08B8  346E               	retlw	110	;'n'
   520  08B9  3464               	retlw	100	;'d'
   521  08BA  3469               	retlw	105	;'i'
   522  08BB  346E               	retlw	110	;'n'
   523  08BC  3467               	retlw	103	;'g'
   524  08BD  3420               	retlw	32	;' '
   525  08BE  3443               	retlw	67	;'C'
   526  08BF  346F               	retlw	111	;'o'
   527  08C0  346D               	retlw	109	;'m'
   528  08C1  3470               	retlw	112	;'p'
   529  08C2  346C               	retlw	108	;'l'
   530  08C3  3465               	retlw	101	;'e'
   531  08C4  3474               	retlw	116	;'t'
   532  08C5  3465               	retlw	101	;'e'
   533  08C6  3473               	retlw	115	;'s'
   534  08C7  3400               	retlw	0
   535  08C8                     STR_10:
   536  08C8  3454               	retlw	84	;'T'
   537  08C9  3469               	retlw	105	;'i'
   538  08CA  346D               	retlw	109	;'m'
   539  08CB  3465               	retlw	101	;'e'
   540  08CC  3420               	retlw	32	;' '
   541  08CD  3452               	retlw	82	;'R'
   542  08CE  3465               	retlw	101	;'e'
   543  08CF  346D               	retlw	109	;'m'
   544  08D0  3461               	retlw	97	;'a'
   545  08D1  3469               	retlw	105	;'i'
   546  08D2  346E               	retlw	110	;'n'
   547  08D3  3469               	retlw	105	;'i'
   548  08D4  346E               	retlw	110	;'n'
   549  08D5  3467               	retlw	103	;'g'
   550  08D6  343A               	retlw	58	;':'
   551  08D7  3400               	retlw	0
   552  08D8                     STR_5:
   553  08D8  3445               	retlw	69	;'E'
   554  08D9  346E               	retlw	110	;'n'
   555  08DA  3474               	retlw	116	;'t'
   556  08DB  3465               	retlw	101	;'e'
   557  08DC  3472               	retlw	114	;'r'
   558  08DD  3465               	retlw	101	;'e'
   559  08DE  3464               	retlw	100	;'d'
   560  08DF  3420               	retlw	32	;' '
   561  08E0  3444               	retlw	68	;'D'
   562  08E1  3461               	retlw	97	;'a'
   563  08E2  3474               	retlw	116	;'t'
   564  08E3  3461               	retlw	97	;'a'
   565  08E4  343A               	retlw	58	;':'
   566  08E5  3420               	retlw	32	;' '
   567  08E6  3400               	retlw	0
   568  08E7                     STR_9:
   569  08E7  3457               	retlw	87	;'W'
   570  08E8  3469               	retlw	105	;'i'
   571  08E9  346E               	retlw	110	;'n'
   572  08EA  3464               	retlw	100	;'d'
   573  08EB  3469               	retlw	105	;'i'
   574  08EC  346E               	retlw	110	;'n'
   575  08ED  3467               	retlw	103	;'g'
   576  08EE  3420               	retlw	32	;' '
   577  08EF  3453               	retlw	83	;'S'
   578  08F0  3474               	retlw	116	;'t'
   579  08F1  3461               	retlw	97	;'a'
   580  08F2  3472               	retlw	114	;'r'
   581  08F3  3474               	retlw	116	;'t'
   582  08F4  3473               	retlw	115	;'s'
   583  08F5  3400               	retlw	0
   584  08F6                     STR_6:
   585  08F6  3442               	retlw	66	;'B'
   586  08F7  346F               	retlw	111	;'o'
   587  08F8  3462               	retlw	98	;'b'
   588  08F9  3462               	retlw	98	;'b'
   589  08FA  3469               	retlw	105	;'i'
   590  08FB  346E               	retlw	110	;'n'
   591  08FC  3420               	retlw	32	;' '
   592  08FD  3453               	retlw	83	;'S'
   593  08FE  3469               	retlw	105	;'i'
   594  08FF  347A               	retlw	122	;'z'
   595  0900  3465               	retlw	101	;'e'
   596  0901  343A               	retlw	58	;':'
   597  0902  3420               	retlw	32	;' '
   598  0903  3400               	retlw	0
   599  0904                     STR_20:
   600  0904  3454               	retlw	84	;'T'
   601  0905  346F               	retlw	111	;'o'
   602  0906  3474               	retlw	116	;'t'
   603  0907  3461               	retlw	97	;'a'
   604  0908  346C               	retlw	108	;'l'
   605  0909  3420               	retlw	32	;' '
   606  090A  3454               	retlw	84	;'T'
   607  090B  3469               	retlw	105	;'i'
   608  090C  346D               	retlw	109	;'m'
   609  090D  3465               	retlw	101	;'e'
   610  090E  343A               	retlw	58	;':'
   611  090F  3420               	retlw	32	;' '
   612  0910  3400               	retlw	0
   613  0911                     STR_7:
   614  0911  3443               	retlw	67	;'C'
   615  0912  346F               	retlw	111	;'o'
   616  0913  3469               	retlw	105	;'i'
   617  0914  346C               	retlw	108	;'l'
   618  0915  3420               	retlw	32	;' '
   619  0916  3453               	retlw	83	;'S'
   620  0917  3469               	retlw	105	;'i'
   621  0918  347A               	retlw	122	;'z'
   622  0919  3465               	retlw	101	;'e'
   623  091A  343A               	retlw	58	;':'
   624  091B  3420               	retlw	32	;' '
   625  091C  3400               	retlw	0
   626  091D                     STR_19:
   627  091D  3454               	retlw	84	;'T'
   628  091E  3469               	retlw	105	;'i'
   629  091F  346D               	retlw	109	;'m'
   630  0920  3465               	retlw	101	;'e'
   631  0921  342F               	retlw	47	;'/'
   632  0922  3454               	retlw	84	;'T'
   633  0923  3475               	retlw	117	;'u'
   634  0924  3472               	retlw	114	;'r'
   635  0925  346E               	retlw	110	;'n'
   636  0926  343A               	retlw	58	;':'
   637  0927  3420               	retlw	32	;' '
   638  0928  3400               	retlw	0
   639  0929                     STR_21:
   640  0929  3450               	retlw	80	;'P'
   641  092A  3472               	retlw	114	;'r'
   642  092B  346F               	retlw	111	;'o'
   643  092C  3463               	retlw	99	;'c'
   644  092D  3465               	retlw	101	;'e'
   645  092E  3465               	retlw	101	;'e'
   646  092F  3464               	retlw	100	;'d'
   647  0930  3469               	retlw	105	;'i'
   648  0931  346E               	retlw	110	;'n'
   649  0932  3467               	retlw	103	;'g'
   650  0933  3400               	retlw	0
   651  0934                     STR_14:
   652  0934  3420               	retlw	32	;' '
   653  0935  3453               	retlw	83	;'S'
   654  0936  3465               	retlw	101	;'e'
   655  0937  3463               	retlw	99	;'c'
   656  0938  346F               	retlw	111	;'o'
   657  0939  346E               	retlw	110	;'n'
   658  093A  3464               	retlw	100	;'d'
   659  093B  3473               	retlw	115	;'s'
   660  093C  342E               	retlw	46	;'.'
   661  093D  3400               	retlw	0
   662  093E                     STR_11:
   663  093E  3453               	retlw	83	;'S'
   664  093F  3465               	retlw	101	;'e'
   665  0940  3463               	retlw	99	;'c'
   666  0941  346F               	retlw	111	;'o'
   667  0942  346E               	retlw	110	;'n'
   668  0943  3464               	retlw	100	;'d'
   669  0944  3473               	retlw	115	;'s'
   670  0945  3400               	retlw	0
   671  0898                     
   672                           	psect	cinit
   673  07DC                     start_initialization:	
   674                           ; #config settings
   675                           
   676  07DC                     __initialization:
   677                           
   678                           ; Initialize objects allocated to BANK1
   679  07DC  1383               	bcf	3,7	;select IRP bank0
   680  07DD  30D4               	movlw	low (__pdataBANK1+52)
   681  07DE  00FD               	movwf	btemp+-1
   682  07DF  3009               	movlw	high __pidataBANK1
   683  07E0  00FE               	movwf	btemp
   684  07E1  304B               	movlw	low __pidataBANK1
   685  07E2  00FF               	movwf	btemp+1
   686  07E3  30A0               	movlw	low __pdataBANK1
   687  07E4  0084               	movwf	4
   688  07E5  160A  118A  2720  120A  118A  	fcall	init_ram0
   689                           
   690                           ; Clear objects allocated to BANK1
   691  07EA  1683               	bsf	3,5	;RP0=1, select bank1
   692  07EB  1303               	bcf	3,6	;RP1=0, select bank1
   693  07EC  01D4               	clrf	__pbssBANK1& (0+127)
   694  07ED  01D5               	clrf	(__pbssBANK1+1)& (0+127)
   695  07EE  01D6               	clrf	(__pbssBANK1+2)& (0+127)
   696  07EF  01D7               	clrf	(__pbssBANK1+3)& (0+127)
   697  07F0  01D8               	clrf	(__pbssBANK1+4)& (0+127)
   698                           
   699                           ; Clear objects allocated to BANK0
   700  07F1  1283               	bcf	3,5	;RP0=0, select bank0
   701  07F2  1303               	bcf	3,6	;RP1=0, select bank0
   702  07F3  01E7               	clrf	__pbssBANK0& (0+127)
   703  07F4  01E8               	clrf	(__pbssBANK0+1)& (0+127)
   704  07F5  01E9               	clrf	(__pbssBANK0+2)& (0+127)
   705  07F6  01EA               	clrf	(__pbssBANK0+3)& (0+127)
   706  07F7  01EB               	clrf	(__pbssBANK0+4)& (0+127)
   707  07F8  01EC               	clrf	(__pbssBANK0+5)& (0+127)
   708  07F9  01ED               	clrf	(__pbssBANK0+6)& (0+127)
   709  07FA  01EE               	clrf	(__pbssBANK0+7)& (0+127)
   710  07FB  01EF               	clrf	(__pbssBANK0+8)& (0+127)
   711  07FC                     end_of_initialization:	
   712                           ;End of C runtime variable initialization code
   713                           
   714  07FC                     __end_of__initialization:
   715  07FC  0183               	clrf	3
   716  07FD  120A  158A  2C77   	ljmp	_main	;jump to C main() function
   717                           
   718                           	psect	bssBANK0
   719  0067                     __pbssBANK0:
   720  0067                     _n2:
   721  0067                     	ds	1
   722  0068                     _n1:
   723  0068                     	ds	1
   724  0069                     _c2:
   725  0069                     	ds	1
   726  006A                     _c1:
   727  006A                     	ds	1
   728  006B                     _b2:
   729  006B                     	ds	1
   730  006C                     _b1:
   731  006C                     	ds	1
   732  006D                     _turn_time:
   733  006D                     	ds	1
   734  006E                     _colloc:
   735  006E                     	ds	1
   736  006F                     _rowloc:
   737  006F                     	ds	1
   738                           
   739                           	psect	bssBANK1
   740  00D4                     __pbssBANK1:
   741  00D4                     _errno:
   742  00D4                     	ds	2
   743  00D6                     _cs:
   744  00D6                     	ds	1
   745  00D7                     _bs:
   746  00D7                     	ds	1
   747  00D8                     _no_turns:
   748  00D8                     	ds	1
   749                           
   750                           	psect	dataBANK1
   751  00A0                     __pdataBANK1:
   752  00A0                     _keypad:
   753  00A0                     	ds	16
   754  00B0                     lookuptable@F1014:
   755  00B0                     	ds	4
   756  00B4                     lookuptable@F1012:
   757  00B4                     	ds	4
   758  00B8                     lookuptable@F1010:
   759  00B8                     	ds	4
   760  00BC                     lookuptable@F1008:
   761  00BC                     	ds	4
   762  00C0                     lookuptable@F1006:
   763  00C0                     	ds	4
   764  00C4                     lookuptable@F1004:
   765  00C4                     	ds	4
   766  00C8                     lookuptable@F1002:
   767  00C8                     	ds	4
   768  00CC                     lookuptable@F1000:
   769  00CC                     	ds	4
   770  00D0                     lookuptable@F998:
   771  00D0                     	ds	4
   772                           
   773                           	psect	inittext
   774  171C                     init_fetch0:	
   775                           ;	Called with low address in FSR and high address in W
   776                           
   777  171C  087E               	movf	btemp,w
   778  171D  008A               	movwf	10
   779  171E  087F               	movf	btemp+1,w
   780  171F  0082               	movwf	2
   781  1720                     init_ram0:	
   782                           ;Called with:
   783                           ;	high address of idata address in btemp 
   784                           ;	low address of idata address in btemp+1 
   785                           ;	low address of data in FSR
   786                           ;	high address + 1 of data in btemp-1
   787                           
   788  1720  160A  118A  271C  160A  118A  	fcall	init_fetch0
   789  1725  0080               	movwf	0
   790  1726  0A84               	incf	4,f
   791  1727  0804               	movf	4,w
   792  1728  067D               	xorwf	btemp+-1,w
   793  1729  1903               	btfsc	3,2
   794  172A  3400               	retlw	0
   795  172B  0AFF               	incf	btemp+1,f
   796  172C  1903               	btfsc	3,2
   797  172D  0AFE               	incf	btemp,f
   798  172E  2F20               	goto	init_ram0
   799                           
   800                           	psect	cstackCOMMON
   801  0070                     __pcstackCOMMON:
   802  0070                     ?___fleq:
   803  0070                     ?_LCD_init:	
   804                           ; 1 bit 
   805                           
   806  0070                     ?_welcome_text:	
   807                           ; 1 bytes @ 0x0
   808                           
   809  0070                     ?_keyinit:	
   810                           ; 1 bytes @ 0x0
   811                           
   812  0070                     ??_keyinit:	
   813                           ; 1 bytes @ 0x0
   814                           
   815  0070                     ?_fetch_sizes:	
   816                           ; 1 bytes @ 0x0
   817                           
   818  0070                     ?_lookuptable:	
   819                           ; 1 bytes @ 0x0
   820                           
   821  0070                     ?_attach_sizes:	
   822                           ; 1 bytes @ 0x0
   823                           
   824  0070                     ?_display_data:	
   825                           ; 1 bytes @ 0x0
   826                           
   827  0070                     ?_winiding_time_check:	
   828                           ; 1 bytes @ 0x0
   829                           
   830  0070                     ?_LCD_cmd:	
   831                           ; 1 bytes @ 0x0
   832                           
   833  0070                     ??_LCD_cmd:	
   834                           ; 1 bytes @ 0x0
   835                           
   836  0070                     ?_main:	
   837                           ; 1 bytes @ 0x0
   838                           
   839  0070                     ?_LCD_dat:	
   840                           ; 1 bytes @ 0x0
   841                           
   842  0070                     ??_LCD_dat:	
   843                           ; 1 bytes @ 0x0
   844                           
   845  0070                     ?_key:	
   846                           ; 1 bytes @ 0x0
   847                           
   848  0070                     ??_key:	
   849                           ; 1 bytes @ 0x0
   850                           
   851  0070                     ?___bmul:	
   852                           ; 1 bytes @ 0x0
   853                           
   854  0070                     ?___lwdiv:	
   855                           ; 1 bytes @ 0x0
   856                           
   857  0070                     ?___lwmod:	
   858                           ; 2 bytes @ 0x0
   859                           
   860  0070                     ?___fladd:	
   861                           ; 2 bytes @ 0x0
   862                           
   863  0070                     ?___xxtofl:	
   864                           ; 4 bytes @ 0x0
   865                           
   866  0070                     ___bmul@multiplicand:	
   867                           ; 4 bytes @ 0x0
   868                           
   869  0070                     winiding_time_check@time:	
   870                           ; 1 bytes @ 0x0
   871                           
   872  0070                     ___lwdiv@divisor:	
   873                           ; 2 bytes @ 0x0
   874                           
   875  0070                     ___lwmod@divisor:	
   876                           ; 2 bytes @ 0x0
   877                           
   878  0070                     ___fleq@ff1:	
   879                           ; 2 bytes @ 0x0
   880                           
   881  0070                     ___fladd@b:	
   882                           ; 4 bytes @ 0x0
   883                           
   884  0070                     ___xxtofl@val:	
   885                           ; 4 bytes @ 0x0
   886                           
   887                           
   888                           ; 4 bytes @ 0x0
   889  0070                     	ds	1
   890  0071                     ??___bmul:
   891                           
   892                           ; 1 bytes @ 0x1
   893  0071                     	ds	1
   894  0072                     ??_winiding_time_check:
   895  0072                     LCD_cmd@cmd:	
   896                           ; 1 bytes @ 0x2
   897                           
   898  0072                     LCD_dat@data:	
   899                           ; 1 bytes @ 0x2
   900                           
   901  0072                     ___bmul@product:	
   902                           ; 1 bytes @ 0x2
   903                           
   904  0072                     ___lwdiv@dividend:	
   905                           ; 1 bytes @ 0x2
   906                           
   907  0072                     ___lwmod@dividend:	
   908                           ; 2 bytes @ 0x2
   909                           
   910                           
   911                           ; 2 bytes @ 0x2
   912  0072                     	ds	1
   913  0073                     ??_LCD_init:
   914  0073                     ?_show:	
   915                           ; 1 bytes @ 0x3
   916                           
   917  0073                     ___bmul@multiplier:	
   918                           ; 1 bytes @ 0x3
   919                           
   920  0073                     show@s:	
   921                           ; 1 bytes @ 0x3
   922                           
   923                           
   924                           ; 2 bytes @ 0x3
   925  0073                     	ds	1
   926  0074                     ??_attach_sizes:
   927  0074                     ??___lwdiv:	
   928                           ; 1 bytes @ 0x4
   929                           
   930  0074                     ??___lwmod:	
   931                           ; 1 bytes @ 0x4
   932                           
   933  0074                     ??___xxtofl:	
   934                           ; 1 bytes @ 0x4
   935                           
   936  0074                     ___fleq@ff2:	
   937                           ; 1 bytes @ 0x4
   938                           
   939  0074                     ___fladd@a:	
   940                           ; 4 bytes @ 0x4
   941                           
   942                           
   943                           ; 4 bytes @ 0x4
   944  0074                     	ds	1
   945  0075                     ??_welcome_text:
   946  0075                     ??_lookuptable:	
   947                           ; 1 bytes @ 0x5
   948                           
   949  0075                     ??_show:	
   950                           ; 1 bytes @ 0x5
   951                           
   952  0075                     ___lwmod@counter:	
   953                           ; 1 bytes @ 0x5
   954                           
   955  0075                     ___lwdiv@quotient:	
   956                           ; 1 bytes @ 0x5
   957                           
   958                           
   959                           ; 2 bytes @ 0x5
   960  0075                     	ds	1
   961  0076                     attach_sizes@er:
   962                           
   963                           ; 1 bytes @ 0x6
   964  0076                     	ds	1
   965  0077                     attach_sizes@n3:
   966  0077                     ___lwdiv@counter:	
   967                           ; 1 bytes @ 0x7
   968                           
   969                           
   970                           ; 1 bytes @ 0x7
   971  0077                     	ds	1
   972  0078                     ??___fleq:
   973  0078                     attach_sizes@n4:	
   974                           ; 1 bytes @ 0x8
   975                           
   976  0078                     ___fladd@signs:	
   977                           ; 1 bytes @ 0x8
   978                           
   979  0078                     ___xxtofl@sign:	
   980                           ; 1 bytes @ 0x8
   981                           
   982                           
   983                           ; 1 bytes @ 0x8
   984  0078                     	ds	1
   985  0079                     ___fladd@aexp:
   986  0079                     ___xxtofl@exp:	
   987                           ; 1 bytes @ 0x9
   988                           
   989                           
   990                           ; 1 bytes @ 0x9
   991  0079                     	ds	1
   992  007A                     ___fladd@bexp:
   993  007A                     ___xxtofl@arg:	
   994                           ; 1 bytes @ 0xA
   995                           
   996                           
   997                           ; 4 bytes @ 0xA
   998  007A                     	ds	1
   999  007B                     ___fladd@grs:
  1000                           
  1001                           ; 1 bytes @ 0xB
  1002  007B                     	ds	1
  1003  007C                     ??_frexp:
  1004                           
  1005                           ; 1 bytes @ 0xC
  1006  007C                     	ds	2
  1007  007E                     ??_LCD_num:
  1008  007E                     ??_round:	
  1009                           ; 1 bytes @ 0xE
  1010                           
  1011  007E                     ??___flsub:	
  1012                           ; 1 bytes @ 0xE
  1013                           
  1014                           
  1015                           	psect	cstackBANK0
  1016  0020                     __pcstackBANK0:	
  1017                           ; 1 bytes @ 0xE
  1018                           
  1019  0020                     ??___fladd:
  1020  0020                     ?_frexp:	
  1021                           ; 1 bytes @ 0x0
  1022                           
  1023  0020                     ?___fltol:	
  1024                           ; 4 bytes @ 0x0
  1025                           
  1026  0020                     lookuptable@lut1:	
  1027                           ; 4 bytes @ 0x0
  1028                           
  1029  0020                     ___fltol@f1:	
  1030                           ; 4 bytes @ 0x0
  1031                           
  1032  0020                     frexp@value:	
  1033                           ; 4 bytes @ 0x0
  1034                           
  1035                           
  1036                           ; 4 bytes @ 0x0
  1037  0020                     	ds	4
  1038  0024                     ??___fltol:
  1039  0024                     frexp@eptr:	
  1040                           ; 1 bytes @ 0x4
  1041                           
  1042  0024                     lookuptable@lut2:	
  1043                           ; 1 bytes @ 0x4
  1044                           
  1045                           
  1046                           ; 4 bytes @ 0x4
  1047  0024                     	ds	4
  1048  0028                     lookuptable@lut3:
  1049                           
  1050                           ; 4 bytes @ 0x8
  1051  0028                     	ds	1
  1052  0029                     ___fltol@sign1:
  1053                           
  1054                           ; 1 bytes @ 0x9
  1055  0029                     	ds	1
  1056  002A                     ___fltol@exp1:
  1057                           
  1058                           ; 1 bytes @ 0xA
  1059  002A                     	ds	1
  1060  002B                     ?_trunc:
  1061  002B                     trunc@x:	
  1062                           ; 4 bytes @ 0xB
  1063                           
  1064                           
  1065                           ; 4 bytes @ 0xB
  1066  002B                     	ds	1
  1067  002C                     lookuptable@lut4:
  1068                           
  1069                           ; 4 bytes @ 0xC
  1070  002C                     	ds	3
  1071  002F                     ??_trunc:
  1072                           
  1073                           ; 1 bytes @ 0xF
  1074  002F                     	ds	1
  1075  0030                     lookuptable@lut5:
  1076  0030                     trunc@i:	
  1077                           ; 4 bytes @ 0x10
  1078                           
  1079                           
  1080                           ; 4 bytes @ 0x10
  1081  0030                     	ds	4
  1082  0034                     trunc@expon:
  1083  0034                     lookuptable@lut6:	
  1084                           ; 2 bytes @ 0x14
  1085                           
  1086                           
  1087                           ; 4 bytes @ 0x14
  1088  0034                     	ds	2
  1089  0036                     ?___flsub:
  1090  0036                     ___flsub@a:	
  1091                           ; 4 bytes @ 0x16
  1092                           
  1093                           
  1094                           ; 4 bytes @ 0x16
  1095  0036                     	ds	2
  1096  0038                     lookuptable@lut7:
  1097                           
  1098                           ; 4 bytes @ 0x18
  1099  0038                     	ds	2
  1100  003A                     ___flsub@b:
  1101                           
  1102                           ; 4 bytes @ 0x1A
  1103  003A                     	ds	2
  1104  003C                     lookuptable@lut8:
  1105                           
  1106                           ; 4 bytes @ 0x1C
  1107  003C                     	ds	2
  1108  003E                     ?_round:
  1109  003E                     round@x:	
  1110                           ; 4 bytes @ 0x1E
  1111                           
  1112                           
  1113                           ; 4 bytes @ 0x1E
  1114  003E                     	ds	2
  1115  0040                     lookuptable@lut9:
  1116                           
  1117                           ; 4 bytes @ 0x20
  1118  0040                     	ds	2
  1119  0042                     round@f:
  1120                           
  1121                           ; 4 bytes @ 0x22
  1122  0042                     	ds	4
  1123  0046                     ?_LCD_num:
  1124  0046                     LCD_num@val:	
  1125                           ; 1 bytes @ 0x26
  1126                           
  1127                           
  1128                           ; 2 bytes @ 0x26
  1129  0046                     	ds	2
  1130  0048                     LCD_num@digit4:
  1131                           
  1132                           ; 2 bytes @ 0x28
  1133  0048                     	ds	2
  1134  004A                     LCD_num@result:
  1135                           
  1136                           ; 2 bytes @ 0x2A
  1137  004A                     	ds	2
  1138  004C                     LCD_num@digit3:
  1139                           
  1140                           ; 2 bytes @ 0x2C
  1141  004C                     	ds	2
  1142  004E                     LCD_num@digit1:
  1143                           
  1144                           ; 2 bytes @ 0x2E
  1145  004E                     	ds	2
  1146  0050                     LCD_num@digit2:
  1147                           
  1148                           ; 2 bytes @ 0x30
  1149  0050                     	ds	2
  1150  0052                     LCD_num@result1:
  1151                           
  1152                           ; 2 bytes @ 0x32
  1153  0052                     	ds	2
  1154  0054                     LCD_num@remainder:
  1155                           
  1156                           ; 2 bytes @ 0x34
  1157  0054                     	ds	2
  1158  0056                     ??_fetch_sizes:
  1159  0056                     ??_display_data:	
  1160                           ; 1 bytes @ 0x36
  1161                           
  1162  0056                     ?_proceeding_text:	
  1163                           ; 1 bytes @ 0x36
  1164                           
  1165  0056                     ?_rotation:	
  1166                           ; 1 bytes @ 0x36
  1167                           
  1168  0056                     ?_result_display:	
  1169                           ; 1 bytes @ 0x36
  1170                           
  1171  0056                     proceeding_text@b:	
  1172                           ; 1 bytes @ 0x36
  1173                           
  1174  0056                     rotation@time:	
  1175                           ; 1 bytes @ 0x36
  1176                           
  1177  0056                     result_display@time:	
  1178                           ; 2 bytes @ 0x36
  1179                           
  1180                           
  1181                           ; 2 bytes @ 0x36
  1182  0056                     	ds	1
  1183  0057                     ??_proceeding_text:
  1184                           
  1185                           ; 1 bytes @ 0x37
  1186  0057                     	ds	1
  1187  0058                     ??_rotation:
  1188  0058                     ??_result_display:	
  1189                           ; 1 bytes @ 0x38
  1190                           
  1191                           
  1192                           ; 1 bytes @ 0x38
  1193  0058                     	ds	1
  1194  0059                     display_data@a:
  1195                           
  1196                           ; 1 bytes @ 0x39
  1197  0059                     	ds	1
  1198  005A                     proceeding_text@a:
  1199                           
  1200                           ; 1 bytes @ 0x3A
  1201  005A                     	ds	1
  1202  005B                     rotation@i:
  1203  005B                     _result_display$942:	
  1204                           ; 2 bytes @ 0x3B
  1205                           
  1206                           
  1207                           ; 4 bytes @ 0x3B
  1208  005B                     	ds	4
  1209  005F                     _result_display$943:
  1210                           
  1211                           ; 4 bytes @ 0x3F
  1212  005F                     	ds	4
  1213  0063                     ??_main:
  1214                           
  1215                           ; 1 bytes @ 0x43
  1216  0063                     	ds	2
  1217  0065                     main@nt:
  1218                           
  1219                           ; 1 bytes @ 0x45
  1220  0065                     	ds	1
  1221  0066                     main@winding_time:
  1222                           
  1223                           ; 1 bytes @ 0x46
  1224  0066                     	ds	1
  1225                           
  1226                           	psect	maintext
  1227  0C77                     __pmaintext:	
  1228 ;;
  1229 ;;Main: autosize = 0, tempsize = 2, incstack = 0, save=0
  1230 ;;
  1231 ;; *************** function _main *****************
  1232 ;; Defined at:
  1233 ;;		line 62 in file "main.c"
  1234 ;; Parameters:    Size  Location     Type
  1235 ;;		None
  1236 ;; Auto vars:     Size  Location     Type
  1237 ;;  winding_time    1   70[BANK0 ] unsigned char 
  1238 ;;  nt              1   69[BANK0 ] unsigned char 
  1239 ;; Return value:  Size  Location     Type
  1240 ;;                  1    wreg      void 
  1241 ;; Registers used:
  1242 ;;		wreg, fsr0l, fsr0h, status,2, status,0, btemp+1, pclath, cstack
  1243 ;; Tracked objects:
  1244 ;;		On entry : B00/0
  1245 ;;		On exit  : 0/0
  1246 ;;		Unchanged: 0/0
  1247 ;; Data sizes:     COMMON   BANK0   BANK1   BANK3   BANK2
  1248 ;;      Params:         0       0       0       0       0
  1249 ;;      Locals:         0       2       0       0       0
  1250 ;;      Temps:          0       2       0       0       0
  1251 ;;      Totals:         0       4       0       0       0
  1252 ;;Total ram usage:        4 bytes
  1253 ;; Hardware stack levels required when called: 5
  1254 ;; This function calls:
  1255 ;;		_LCD_init
  1256 ;;		___bmul
  1257 ;;		_attach_sizes
  1258 ;;		_display_data
  1259 ;;		_fetch_sizes
  1260 ;;		_keyinit
  1261 ;;		_lookuptable
  1262 ;;		_proceeding_text
  1263 ;;		_result_display
  1264 ;;		_rotation
  1265 ;;		_welcome_text
  1266 ;;		_winiding_time_check
  1267 ;; This function is called by:
  1268 ;;		Startup code after reset
  1269 ;; This function uses a non-reentrant model
  1270 ;;
  1271                           
  1272                           
  1273                           ;psect for function _main
  1274  0C77                     _main:
  1275  0C77                     l2507:	
  1276                           ;incstack = 0
  1277                           ; Regs used in _main: [wreg-fsr0h+status,2+status,0+btemp+1+pclath+cstack]
  1278                           
  1279                           
  1280                           ;main.c: 64:     TRISB=0;
  1281  0C77  1683               	bsf	3,5	;RP0=1, select bank1
  1282  0C78  1303               	bcf	3,6	;RP1=0, select bank1
  1283  0C79  0186               	clrf	6	;volatile
  1284                           
  1285                           ;main.c: 65:     TRISC=0;
  1286  0C7A  0187               	clrf	7	;volatile
  1287  0C7B                     l2509:
  1288                           
  1289                           ;main.c: 66:     LCD_init();
  1290  0C7B  160A  118A  2744  120A  158A  	fcall	_LCD_init
  1291  0C80                     l2511:
  1292                           
  1293                           ;main.c: 67:     welcome_text();
  1294  0C80  120A  158A  217F  120A  158A  	fcall	_welcome_text
  1295  0C85                     l2513:
  1296                           
  1297                           ;main.c: 68:     keyinit();
  1298  0C85  160A  118A  270A  120A  158A  	fcall	_keyinit
  1299  0C8A                     l2515:
  1300  0C8A                     l2517:
  1301  0C8A                     l2519:
  1302                           
  1303                           ;main.c: 73:     {;main.c: 74:         fetch_sizes();
  1304  0C8A  120A  118A  202C  120A  158A  	fcall	_fetch_sizes
  1305  0C8F                     l2521:
  1306                           
  1307                           ;main.c: 75:         lookuptable();
  1308  0C8F  120A  118A  211A  120A  158A  	fcall	_lookuptable
  1309  0C94                     l2523:
  1310                           
  1311                           ;main.c: 76:         nt = attach_sizes();
  1312  0C94  160A  118A  27C1  120A  158A  	fcall	_attach_sizes
  1313  0C99  1283               	bcf	3,5	;RP0=0, select bank0
  1314  0C9A  1303               	bcf	3,6	;RP1=0, select bank0
  1315  0C9B  00E3               	movwf	??_main
  1316  0C9C  0863               	movf	??_main,w
  1317  0C9D  00E5               	movwf	main@nt
  1318  0C9E                     l2525:
  1319                           
  1320                           ;main.c: 77:         display_data(nt);
  1321  0C9E  0865               	movf	main@nt,w
  1322  0C9F  120A  158A  25F7  120A  158A  	fcall	_display_data
  1323  0CA4                     l2527:
  1324                           
  1325                           ;main.c: 78:         winding_time = (nt) * turn_time;
  1326  0CA4  1283               	bcf	3,5	;RP0=0, select bank0
  1327  0CA5  1303               	bcf	3,6	;RP1=0, select bank0
  1328  0CA6  086D               	movf	_turn_time,w
  1329  0CA7  00E3               	movwf	??_main
  1330  0CA8  0863               	movf	??_main,w
  1331  0CA9  00F0               	movwf	___bmul@multiplicand
  1332  0CAA  0865               	movf	main@nt,w
  1333  0CAB  160A  118A  272F  120A  158A  	fcall	___bmul
  1334  0CB0  1283               	bcf	3,5	;RP0=0, select bank0
  1335  0CB1  1303               	bcf	3,6	;RP1=0, select bank0
  1336  0CB2  00E4               	movwf	??_main+1
  1337  0CB3  0864               	movf	??_main+1,w
  1338  0CB4  00E6               	movwf	main@winding_time
  1339  0CB5                     l2529:
  1340                           
  1341                           ;main.c: 79:         proceeding_text(nt,winding_time);
  1342  0CB5  0866               	movf	main@winding_time,w
  1343  0CB6  00E3               	movwf	??_main
  1344  0CB7  0863               	movf	??_main,w
  1345  0CB8  00D6               	movwf	proceeding_text@b
  1346  0CB9  0865               	movf	main@nt,w
  1347  0CBA  120A  158A  268C  120A  158A  	fcall	_proceeding_text
  1348  0CBF                     l2531:
  1349                           
  1350                           ;main.c: 81:         winiding_time_check(winding_time);
  1351  0CBF  1283               	bcf	3,5	;RP0=0, select bank0
  1352  0CC0  1303               	bcf	3,6	;RP1=0, select bank0
  1353  0CC1  0866               	movf	main@winding_time,w
  1354  0CC2  00E3               	movwf	??_main
  1355  0CC3  01E4               	clrf	??_main+1
  1356  0CC4  0863               	movf	??_main,w
  1357  0CC5  00F0               	movwf	winiding_time_check@time
  1358  0CC6  0864               	movf	??_main+1,w
  1359  0CC7  00F1               	movwf	winiding_time_check@time+1
  1360  0CC8  160A  118A  2712  120A  158A  	fcall	_winiding_time_check
  1361  0CCD                     l2533:
  1362                           
  1363                           ;main.c: 83:         if (winding_time > 0)
  1364  0CCD  1283               	bcf	3,5	;RP0=0, select bank0
  1365  0CCE  1303               	bcf	3,6	;RP1=0, select bank0
  1366  0CCF  0866               	movf	main@winding_time,w
  1367  0CD0  1903               	btfsc	3,2
  1368  0CD1  2CD3               	goto	u3401
  1369  0CD2  2CD4               	goto	u3400
  1370  0CD3                     u3401:
  1371  0CD3  2C8A               	goto	l2519
  1372  0CD4                     u3400:
  1373  0CD4                     l2535:
  1374                           
  1375                           ;main.c: 84:         {;main.c: 85:             rotation(winding_time);
  1376  0CD4  0866               	movf	main@winding_time,w
  1377  0CD5  00E3               	movwf	??_main
  1378  0CD6  01E4               	clrf	??_main+1
  1379  0CD7  0863               	movf	??_main,w
  1380  0CD8  00D6               	movwf	rotation@time
  1381  0CD9  0864               	movf	??_main+1,w
  1382  0CDA  00D7               	movwf	rotation@time+1
  1383  0CDB  120A  158A  2401  120A  158A  	fcall	_rotation
  1384                           
  1385                           ;main.c: 86:             result_display(winding_time);
  1386  0CE0  1283               	bcf	3,5	;RP0=0, select bank0
  1387  0CE1  1303               	bcf	3,6	;RP1=0, select bank0
  1388  0CE2  0866               	movf	main@winding_time,w
  1389  0CE3  00E3               	movwf	??_main
  1390  0CE4  01E4               	clrf	??_main+1
  1391  0CE5  0863               	movf	??_main,w
  1392  0CE6  00D6               	movwf	result_display@time
  1393  0CE7  0864               	movf	??_main+1,w
  1394  0CE8  00D7               	movwf	result_display@time+1
  1395  0CE9  120A  158A  256E  120A  158A  	fcall	_result_display
  1396  0CEE                     l99:	
  1397                           ;main.c: 87:             while(1);
  1398                           
  1399  0CEE                     l100:
  1400  0CEE  2CEE               	goto	l99
  1401  0CEF  120A  118A  2800   	ljmp	start
  1402  0CF2                     __end_of_main:
  1403                           
  1404                           	psect	text1
  1405  1712                     __ptext1:	
  1406 ;; *************** function _winiding_time_check *****************
  1407 ;; Defined at:
  1408 ;;		line 346 in file "main.c"
  1409 ;; Parameters:    Size  Location     Type
  1410 ;;  time            2    0[COMMON] unsigned int 
  1411 ;; Auto vars:     Size  Location     Type
  1412 ;;		None
  1413 ;; Return value:  Size  Location     Type
  1414 ;;                  1    wreg      void 
  1415 ;; Registers used:
  1416 ;;		wreg, status,2, status,0
  1417 ;; Tracked objects:
  1418 ;;		On entry : 0/0
  1419 ;;		On exit  : 0/0
  1420 ;;		Unchanged: 0/0
  1421 ;; Data sizes:     COMMON   BANK0   BANK1   BANK3   BANK2
  1422 ;;      Params:         2       0       0       0       0
  1423 ;;      Locals:         0       0       0       0       0
  1424 ;;      Temps:          0       0       0       0       0
  1425 ;;      Totals:         2       0       0       0       0
  1426 ;;Total ram usage:        2 bytes
  1427 ;; Hardware stack levels used: 1
  1428 ;; This function calls:
  1429 ;;		Nothing
  1430 ;; This function is called by:
  1431 ;;		_main
  1432 ;; This function uses a non-reentrant model
  1433 ;;
  1434                           
  1435                           
  1436                           ;psect for function _winiding_time_check
  1437  1712                     _winiding_time_check:
  1438  1712                     l2461:	
  1439                           ;incstack = 0
  1440                           ; Regs used in _winiding_time_check: [wreg+status,2+status,0]
  1441                           
  1442                           
  1443                           ;main.c: 346: void winiding_time_check(unsigned int time);main.c: 347: {;main.c: 348:   
      +                                if (time > 0)
  1444  1712  0870               	movf	winiding_time_check@time,w
  1445  1713  0471               	iorwf	winiding_time_check@time+1,w
  1446  1714  1903               	btfsc	3,2
  1447  1715  2F17               	goto	u3381
  1448  1716  2F18               	goto	u3380
  1449  1717                     u3381:
  1450  1717  2F1B               	goto	l207
  1451  1718                     u3380:
  1452  1718                     l2463:
  1453                           
  1454                           ;main.c: 349:         {;main.c: 350:             RB7 = 1;
  1455  1718  1283               	bcf	3,5	;RP0=0, select bank0
  1456  1719  1303               	bcf	3,6	;RP1=0, select bank0
  1457  171A  1786               	bsf	6,7	;volatile
  1458  171B                     l207:
  1459  171B  0008               	return
  1460  171C                     __end_of_winiding_time_check:
  1461                           
  1462                           	psect	text2
  1463  097F                     __ptext2:	
  1464 ;; *************** function _welcome_text *****************
  1465 ;; Defined at:
  1466 ;;		line 433 in file "main.c"
  1467 ;; Parameters:    Size  Location     Type
  1468 ;;		None
  1469 ;; Auto vars:     Size  Location     Type
  1470 ;;		None
  1471 ;; Return value:  Size  Location     Type
  1472 ;;                  1    wreg      void 
  1473 ;; Registers used:
  1474 ;;		wreg, fsr0l, fsr0h, status,2, status,0, btemp+1, pclath, cstack
  1475 ;; Tracked objects:
  1476 ;;		On entry : 0/0
  1477 ;;		On exit  : 0/0
  1478 ;;		Unchanged: 0/0
  1479 ;; Data sizes:     COMMON   BANK0   BANK1   BANK3   BANK2
  1480 ;;      Params:         0       0       0       0       0
  1481 ;;      Locals:         0       0       0       0       0
  1482 ;;      Temps:          3       0       0       0       0
  1483 ;;      Totals:         3       0       0       0       0
  1484 ;;Total ram usage:        3 bytes
  1485 ;; Hardware stack levels used: 1
  1486 ;; Hardware stack levels required when called: 2
  1487 ;; This function calls:
  1488 ;;		_LCD_cmd
  1489 ;;		_show
  1490 ;; This function is called by:
  1491 ;;		_main
  1492 ;; This function uses a non-reentrant model
  1493 ;;
  1494                           
  1495                           
  1496                           ;psect for function _welcome_text
  1497  097F                     _welcome_text:
  1498  097F                     l2303:	
  1499                           ;incstack = 0
  1500                           ; Regs used in _welcome_text: [wreg-fsr0h+status,2+status,0+btemp+1+pclath+cstack]
  1501                           
  1502                           
  1503                           ;main.c: 435:     LCD_cmd(0x01);
  1504  097F  3001               	movlw	1
  1505  0980  120A  158A  2204  120A  158A  	fcall	_LCD_cmd
  1506                           
  1507                           ;main.c: 436:     LCD_cmd(0x80);
  1508  0985  3080               	movlw	128
  1509  0986  120A  158A  2204  120A  158A  	fcall	_LCD_cmd
  1510  098B                     l2305:
  1511                           
  1512                           ;main.c: 437:     show("!!    WELCOME    !!");
  1513  098B  306A               	movlw	low (STR_15| (0+32768))
  1514  098C  00F3               	movwf	show@s
  1515  098D  3088               	movlw	high (STR_15| (0+32768))
  1516  098E  00F4               	movwf	show@s+1
  1517  098F  120A  118A  2006  120A  158A  	fcall	_show
  1518  0994                     l2307:
  1519                           
  1520                           ;main.c: 438:     LCD_cmd(0x94);
  1521  0994  3094               	movlw	148
  1522  0995  120A  158A  2204  120A  158A  	fcall	_LCD_cmd
  1523                           
  1524                           ;main.c: 439:     show("TRANSFORMER WINDING");
  1525  099A  307E               	movlw	low (STR_16| (0+32768))
  1526  099B  00F3               	movwf	show@s
  1527  099C  3088               	movlw	high (STR_16| (0+32768))
  1528  099D  00F4               	movwf	show@s+1
  1529  099E  120A  118A  2006  120A  158A  	fcall	_show
  1530  09A3                     l2309:
  1531                           
  1532                           ;main.c: 440:     LCD_cmd(0xD4);
  1533  09A3  30D4               	movlw	212
  1534  09A4  120A  158A  2204  120A  158A  	fcall	_LCD_cmd
  1535  09A9                     l2311:
  1536                           
  1537                           ;main.c: 441:     show("      MACHINE      ");
  1538  09A9  3056               	movlw	low (STR_17| (0+32768))
  1539  09AA  00F3               	movwf	show@s
  1540  09AB  3088               	movlw	high (STR_17| (0+32768))
  1541  09AC  00F4               	movwf	show@s+1
  1542  09AD  120A  118A  2006  120A  158A  	fcall	_show
  1543  09B2                     l2313:
  1544                           
  1545                           ;main.c: 442:     _delay((unsigned long)((1000)*(20000000/4000.0)));
  1546  09B2  301A               	movlw	26
  1547  09B3  00F7               	movwf	??_welcome_text+2
  1548  09B4  305E               	movlw	94
  1549  09B5  00F6               	movwf	??_welcome_text+1
  1550  09B6  306E               	movlw	110
  1551  09B7  00F5               	movwf	??_welcome_text
  1552  09B8                     u3417:
  1553  09B8  0BF5               	decfsz	??_welcome_text,f
  1554  09B9  29B8               	goto	u3417
  1555  09BA  0BF6               	decfsz	??_welcome_text+1,f
  1556  09BB  29B8               	goto	u3417
  1557  09BC  0BF7               	decfsz	??_welcome_text+2,f
  1558  09BD  29B8               	goto	u3417
  1559  09BE  0000               	nop
  1560  09BF                     l228:
  1561  09BF  0008               	return
  1562  09C0                     __end_of_welcome_text:
  1563                           
  1564                           	psect	text3
  1565  0C01                     __ptext3:	
  1566 ;; *************** function _rotation *****************
  1567 ;; Defined at:
  1568 ;;		line 354 in file "main.c"
  1569 ;; Parameters:    Size  Location     Type
  1570 ;;  time            2   54[BANK0 ] unsigned int 
  1571 ;; Auto vars:     Size  Location     Type
  1572 ;;  i               2   59[BANK0 ] int 
  1573 ;; Return value:  Size  Location     Type
  1574 ;;                  1    wreg      void 
  1575 ;; Registers used:
  1576 ;;		wreg, fsr0l, fsr0h, status,2, status,0, btemp+1, pclath, cstack
  1577 ;; Tracked objects:
  1578 ;;		On entry : 0/0
  1579 ;;		On exit  : 0/0
  1580 ;;		Unchanged: 0/0
  1581 ;; Data sizes:     COMMON   BANK0   BANK1   BANK3   BANK2
  1582 ;;      Params:         0       2       0       0       0
  1583 ;;      Locals:         0       2       0       0       0
  1584 ;;      Temps:          0       3       0       0       0
  1585 ;;      Totals:         0       7       0       0       0
  1586 ;;Total ram usage:        7 bytes
  1587 ;; Hardware stack levels used: 1
  1588 ;; Hardware stack levels required when called: 2
  1589 ;; This function calls:
  1590 ;;		_LCD_cmd
  1591 ;;		_LCD_num
  1592 ;;		_show
  1593 ;; This function is called by:
  1594 ;;		_main
  1595 ;; This function uses a non-reentrant model
  1596 ;;
  1597                           
  1598                           
  1599                           ;psect for function _rotation
  1600  0C01                     _rotation:
  1601  0C01                     l2465:	
  1602                           ;incstack = 0
  1603                           ; Regs used in _rotation: [wreg-fsr0h+status,2+status,0+btemp+1+pclath+cstack]
  1604                           
  1605                           
  1606                           ;main.c: 354: void rotation(unsigned int time);main.c: 355: {;main.c: 356:     LCD_cmd(0
      +                          x01);
  1607  0C01  3001               	movlw	1
  1608  0C02  120A  158A  2204  120A  158A  	fcall	_LCD_cmd
  1609                           
  1610                           ;main.c: 357:     LCD_cmd(0x80);
  1611  0C07  3080               	movlw	128
  1612  0C08  120A  158A  2204  120A  158A  	fcall	_LCD_cmd
  1613  0C0D                     l2467:
  1614                           
  1615                           ;main.c: 358:     show("Winding Starts");
  1616  0C0D  30E7               	movlw	low (STR_9| (0+32768))
  1617  0C0E  00F3               	movwf	show@s
  1618  0C0F  3088               	movlw	high (STR_9| (0+32768))
  1619  0C10  00F4               	movwf	show@s+1
  1620  0C11  120A  118A  2006  120A  158A  	fcall	_show
  1621  0C16                     l2469:
  1622                           
  1623                           ;main.c: 359:     LCD_cmd(0x94);
  1624  0C16  3094               	movlw	148
  1625  0C17  120A  158A  2204  120A  158A  	fcall	_LCD_cmd
  1626                           
  1627                           ;main.c: 360:     show("Time Remaining:");
  1628  0C1C  30C8               	movlw	low (STR_10| (0+32768))
  1629  0C1D  00F3               	movwf	show@s
  1630  0C1E  3088               	movlw	high (STR_10| (0+32768))
  1631  0C1F  00F4               	movwf	show@s+1
  1632  0C20  120A  118A  2006  120A  158A  	fcall	_show
  1633  0C25                     l2471:
  1634                           
  1635                           ;main.c: 361:     LCD_cmd(0xD8);
  1636  0C25  30D8               	movlw	216
  1637  0C26  120A  158A  2204  120A  158A  	fcall	_LCD_cmd
  1638  0C2B                     l2473:
  1639                           
  1640                           ;main.c: 362:     show("Seconds");
  1641  0C2B  303E               	movlw	low (STR_11| (0+32768))
  1642  0C2C  00F3               	movwf	show@s
  1643  0C2D  3089               	movlw	high (STR_11| (0+32768))
  1644  0C2E  00F4               	movwf	show@s+1
  1645  0C2F  120A  118A  2006  120A  158A  	fcall	_show
  1646                           
  1647                           ;main.c: 363:     LCD_cmd(0xD4);
  1648  0C34  30D4               	movlw	212
  1649  0C35  120A  158A  2204  120A  158A  	fcall	_LCD_cmd
  1650  0C3A                     l2475:
  1651                           
  1652                           ;main.c: 364:     RB4 = 1;
  1653  0C3A  1283               	bcf	3,5	;RP0=0, select bank0
  1654  0C3B  1303               	bcf	3,6	;RP1=0, select bank0
  1655  0C3C  1606               	bsf	6,4	;volatile
  1656  0C3D                     l2477:
  1657                           
  1658                           ;main.c: 365:     for (int i=time; i>0; i--)
  1659  0C3D  0857               	movf	rotation@time+1,w
  1660  0C3E  00DC               	movwf	rotation@i+1
  1661  0C3F  0856               	movf	rotation@time,w
  1662  0C40  00DB               	movwf	rotation@i
  1663  0C41                     l2479:
  1664  0C41  085C               	movf	rotation@i+1,w
  1665  0C42  3A80               	xorlw	128
  1666  0C43  00FF               	movwf	btemp+1
  1667  0C44  3080               	movlw	128
  1668  0C45  027F               	subwf	btemp+1,w
  1669  0C46  1D03               	skipz
  1670  0C47  2C4A               	goto	u3395
  1671  0C48  3001               	movlw	1
  1672  0C49  025B               	subwf	rotation@i,w
  1673  0C4A                     u3395:
  1674  0C4A  1803               	skipnc
  1675  0C4B  2C4D               	goto	u3391
  1676  0C4C  2C4E               	goto	u3390
  1677  0C4D                     u3391:
  1678  0C4D  2C4F               	goto	l2483
  1679  0C4E                     u3390:
  1680  0C4E  2C72               	goto	l211
  1681  0C4F                     l2483:
  1682                           
  1683                           ;main.c: 366:     {;main.c: 367:         _delay((unsigned long)((1000)*(20000000/4000.0)
      +                          ));
  1684  0C4F  301A               	movlw	26
  1685  0C50  1283               	bcf	3,5	;RP0=0, select bank0
  1686  0C51  1303               	bcf	3,6	;RP1=0, select bank0
  1687  0C52  00DA               	movwf	??_rotation+2
  1688  0C53  305E               	movlw	94
  1689  0C54  00D9               	movwf	??_rotation+1
  1690  0C55  306D               	movlw	109
  1691  0C56  00D8               	movwf	??_rotation
  1692  0C57                     u3427:
  1693  0C57  0BD8               	decfsz	??_rotation,f
  1694  0C58  2C57               	goto	u3427
  1695  0C59  0BD9               	decfsz	??_rotation+1,f
  1696  0C5A  2C57               	goto	u3427
  1697  0C5B  0BDA               	decfsz	??_rotation+2,f
  1698  0C5C  2C57               	goto	u3427
  1699  0C5D  2C5E               	nop2
  1700  0C5E                     l2485:
  1701                           
  1702                           ;main.c: 368:         LCD_num(time);
  1703  0C5E  1283               	bcf	3,5	;RP0=0, select bank0
  1704  0C5F  1303               	bcf	3,6	;RP1=0, select bank0
  1705  0C60  0857               	movf	rotation@time+1,w
  1706  0C61  00C7               	movwf	LCD_num@val+1
  1707  0C62  0856               	movf	rotation@time,w
  1708  0C63  00C6               	movwf	LCD_num@val
  1709  0C64  120A  118A  23B0  120A  158A  	fcall	_LCD_num
  1710  0C69                     l2487:
  1711                           
  1712                           ;main.c: 369:     }
  1713  0C69  30FF               	movlw	255
  1714  0C6A  1283               	bcf	3,5	;RP0=0, select bank0
  1715  0C6B  1303               	bcf	3,6	;RP1=0, select bank0
  1716  0C6C  07DB               	addwf	rotation@i,f
  1717  0C6D  1803               	skipnc
  1718  0C6E  0ADC               	incf	rotation@i+1,f
  1719  0C6F  30FF               	movlw	255
  1720  0C70  07DC               	addwf	rotation@i+1,f
  1721  0C71  2C41               	goto	l2479
  1722  0C72                     l211:
  1723                           
  1724                           ;main.c: 370:     RB1 = 1;
  1725  0C72  1283               	bcf	3,5	;RP0=0, select bank0
  1726  0C73  1303               	bcf	3,6	;RP1=0, select bank0
  1727  0C74  1486               	bsf	6,1	;volatile
  1728                           
  1729                           ;main.c: 371:     RB4 = 0;
  1730  0C75  1206               	bcf	6,4	;volatile
  1731  0C76                     l212:
  1732  0C76  0008               	return
  1733  0C77                     __end_of_rotation:
  1734                           
  1735                           	psect	text4
  1736  0D6E                     __ptext4:	
  1737 ;; *************** function _result_display *****************
  1738 ;; Defined at:
  1739 ;;		line 374 in file "main.c"
  1740 ;; Parameters:    Size  Location     Type
  1741 ;;  time            2   54[BANK0 ] unsigned int 
  1742 ;; Auto vars:     Size  Location     Type
  1743 ;;		None
  1744 ;; Return value:  Size  Location     Type
  1745 ;;                  1    wreg      void 
  1746 ;; Registers used:
  1747 ;;		wreg, fsr0l, fsr0h, status,2, status,0, btemp+1, pclath, cstack
  1748 ;; Tracked objects:
  1749 ;;		On entry : 0/0
  1750 ;;		On exit  : 0/0
  1751 ;;		Unchanged: 0/0
  1752 ;; Data sizes:     COMMON   BANK0   BANK1   BANK3   BANK2
  1753 ;;      Params:         0       2       0       0       0
  1754 ;;      Locals:         0       8       0       0       0
  1755 ;;      Temps:          0       3       0       0       0
  1756 ;;      Totals:         0      13       0       0       0
  1757 ;;Total ram usage:       13 bytes
  1758 ;; Hardware stack levels used: 1
  1759 ;; Hardware stack levels required when called: 4
  1760 ;; This function calls:
  1761 ;;		_LCD_cmd
  1762 ;;		_LCD_num
  1763 ;;		___fltol
  1764 ;;		___xxtofl
  1765 ;;		_round
  1766 ;;		_show
  1767 ;; This function is called by:
  1768 ;;		_main
  1769 ;; This function uses a non-reentrant model
  1770 ;;
  1771                           
  1772                           
  1773                           ;psect for function _result_display
  1774  0D6E                     _result_display:
  1775  0D6E                     l2491:	
  1776                           ;incstack = 0
  1777                           ; Regs used in _result_display: [wreg-fsr0h+status,2+status,0+btemp+1+pclath+cstack]
  1778                           
  1779                           
  1780                           ;main.c: 374: void result_display(unsigned int time);main.c: 375: {;main.c: 376:     LCD
      +                          _cmd(0x01);
  1781  0D6E  3001               	movlw	1
  1782  0D6F  120A  158A  2204  120A  158A  	fcall	_LCD_cmd
  1783                           
  1784                           ;main.c: 377:     LCD_cmd(0x80);
  1785  0D74  3080               	movlw	128
  1786  0D75  120A  158A  2204  120A  158A  	fcall	_LCD_cmd
  1787  0D7A                     l2493:
  1788                           
  1789                           ;main.c: 378:     show("Winding Completes");
  1790  0D7A  30B6               	movlw	low (STR_12| (0+32768))
  1791  0D7B  00F3               	movwf	show@s
  1792  0D7C  3088               	movlw	high (STR_12| (0+32768))
  1793  0D7D  00F4               	movwf	show@s+1
  1794  0D7E  120A  118A  2006  120A  158A  	fcall	_show
  1795  0D83                     l2495:
  1796                           
  1797                           ;main.c: 379:     LCD_cmd(0x94);
  1798  0D83  3094               	movlw	148
  1799  0D84  120A  158A  2204  120A  158A  	fcall	_LCD_cmd
  1800                           
  1801                           ;main.c: 380:     show("Total Time Taken:");
  1802  0D89  30A4               	movlw	low (STR_13| (0+32768))
  1803  0D8A  00F3               	movwf	show@s
  1804  0D8B  3088               	movlw	high (STR_13| (0+32768))
  1805  0D8C  00F4               	movwf	show@s+1
  1806  0D8D  120A  118A  2006  120A  158A  	fcall	_show
  1807  0D92                     l2497:
  1808                           
  1809                           ;main.c: 381:     LCD_cmd(0xD4);
  1810  0D92  30D4               	movlw	212
  1811  0D93  120A  158A  2204  120A  158A  	fcall	_LCD_cmd
  1812  0D98                     l2499:
  1813                           
  1814                           ;main.c: 383:     LCD_num(round(time));
  1815  0D98  1283               	bcf	3,5	;RP0=0, select bank0
  1816  0D99  1303               	bcf	3,6	;RP1=0, select bank0
  1817  0D9A  0856               	movf	result_display@time,w
  1818  0D9B  00F0               	movwf	___xxtofl@val
  1819  0D9C  0857               	movf	result_display@time+1,w
  1820  0D9D  00F1               	movwf	___xxtofl@val+1
  1821  0D9E  01F2               	clrf	___xxtofl@val+2
  1822  0D9F  01F3               	clrf	___xxtofl@val+3
  1823  0DA0  3000               	movlw	0
  1824  0DA1  120A  158A  2746  120A  158A  	fcall	___xxtofl
  1825  0DA6  0873               	movf	?___xxtofl+3,w
  1826  0DA7  1283               	bcf	3,5	;RP0=0, select bank0
  1827  0DA8  1303               	bcf	3,6	;RP1=0, select bank0
  1828  0DA9  00DE               	movwf	_result_display$942+3
  1829  0DAA  0872               	movf	?___xxtofl+2,w
  1830  0DAB  00DD               	movwf	_result_display$942+2
  1831  0DAC  0871               	movf	?___xxtofl+1,w
  1832  0DAD  00DC               	movwf	_result_display$942+1
  1833  0DAE  0870               	movf	?___xxtofl,w
  1834  0DAF  00DB               	movwf	_result_display$942
  1835                           
  1836                           ;main.c: 383:     LCD_num(round(time));
  1837  0DB0  085E               	movf	_result_display$942+3,w
  1838  0DB1  00C1               	movwf	round@x+3
  1839  0DB2  085D               	movf	_result_display$942+2,w
  1840  0DB3  00C0               	movwf	round@x+2
  1841  0DB4  085C               	movf	_result_display$942+1,w
  1842  0DB5  00BF               	movwf	round@x+1
  1843  0DB6  085B               	movf	_result_display$942,w
  1844  0DB7  00BE               	movwf	round@x
  1845  0DB8  120A  158A  239A  120A  158A  	fcall	_round
  1846  0DBD  1283               	bcf	3,5	;RP0=0, select bank0
  1847  0DBE  1303               	bcf	3,6	;RP1=0, select bank0
  1848  0DBF  0841               	movf	?_round+3,w
  1849  0DC0  00E2               	movwf	_result_display$943+3
  1850  0DC1  0840               	movf	?_round+2,w
  1851  0DC2  00E1               	movwf	_result_display$943+2
  1852  0DC3  083F               	movf	?_round+1,w
  1853  0DC4  00E0               	movwf	_result_display$943+1
  1854  0DC5  083E               	movf	?_round,w
  1855  0DC6  00DF               	movwf	_result_display$943
  1856  0DC7                     l2501:
  1857                           
  1858                           ;main.c: 383:     LCD_num(round(time));
  1859  0DC7  0862               	movf	_result_display$943+3,w
  1860  0DC8  00A3               	movwf	___fltol@f1+3
  1861  0DC9  0861               	movf	_result_display$943+2,w
  1862  0DCA  00A2               	movwf	___fltol@f1+2
  1863  0DCB  0860               	movf	_result_display$943+1,w
  1864  0DCC  00A1               	movwf	___fltol@f1+1
  1865  0DCD  085F               	movf	_result_display$943,w
  1866  0DCE  00A0               	movwf	___fltol@f1
  1867  0DCF  120A  158A  24F2  120A  158A  	fcall	___fltol
  1868  0DD4  1283               	bcf	3,5	;RP0=0, select bank0
  1869  0DD5  1303               	bcf	3,6	;RP1=0, select bank0
  1870  0DD6  0821               	movf	?___fltol+1,w
  1871  0DD7  00C7               	movwf	LCD_num@val+1
  1872  0DD8  0820               	movf	?___fltol,w
  1873  0DD9  00C6               	movwf	LCD_num@val
  1874  0DDA  120A  118A  23B0  120A  158A  	fcall	_LCD_num
  1875  0DDF                     l2503:
  1876                           
  1877                           ;main.c: 384:     show(" Seconds.");
  1878  0DDF  3034               	movlw	low (STR_14| (0+32768))
  1879  0DE0  00F3               	movwf	show@s
  1880  0DE1  3089               	movlw	high (STR_14| (0+32768))
  1881  0DE2  00F4               	movwf	show@s+1
  1882  0DE3  120A  118A  2006  120A  158A  	fcall	_show
  1883  0DE8                     l2505:
  1884                           
  1885                           ;main.c: 385:     _delay((unsigned long)((3000)*(20000000/4000.0)));
  1886  0DE8  304D               	movlw	77
  1887  0DE9  1283               	bcf	3,5	;RP0=0, select bank0
  1888  0DEA  1303               	bcf	3,6	;RP1=0, select bank0
  1889  0DEB  00DA               	movwf	??_result_display+2
  1890  0DEC  3019               	movlw	25
  1891  0DED  00D9               	movwf	??_result_display+1
  1892  0DEE  304F               	movlw	79
  1893  0DEF  00D8               	movwf	??_result_display
  1894  0DF0                     u3437:
  1895  0DF0  0BD8               	decfsz	??_result_display,f
  1896  0DF1  2DF0               	goto	u3437
  1897  0DF2  0BD9               	decfsz	??_result_display+1,f
  1898  0DF3  2DF0               	goto	u3437
  1899  0DF4  0BDA               	decfsz	??_result_display+2,f
  1900  0DF5  2DF0               	goto	u3437
  1901  0DF6                     l215:
  1902  0DF6  0008               	return
  1903  0DF7                     __end_of_result_display:
  1904                           
  1905                           	psect	text5
  1906  0B9A                     __ptext5:	
  1907 ;; *************** function _round *****************
  1908 ;; Defined at:
  1909 ;;		line 6 in file "C:\Program Files\Microchip\xc8\v2.32\pic\sources\c90\common\round.c"
  1910 ;; Parameters:    Size  Location     Type
  1911 ;;  x               4   30[BANK0 ] void 
  1912 ;; Auto vars:     Size  Location     Type
  1913 ;;  f               4   34[BANK0 ] void 
  1914 ;; Return value:  Size  Location     Type
  1915 ;;                  4   30[BANK0 ] void 
  1916 ;; Registers used:
  1917 ;;		wreg, fsr0l, fsr0h, status,2, status,0, btemp+1, pclath, cstack
  1918 ;; Tracked objects:
  1919 ;;		On entry : 0/0
  1920 ;;		On exit  : 0/0
  1921 ;;		Unchanged: 0/0
  1922 ;; Data sizes:     COMMON   BANK0   BANK1   BANK3   BANK2
  1923 ;;      Params:         0       4       0       0       0
  1924 ;;      Locals:         0       4       0       0       0
  1925 ;;      Temps:          0       0       0       0       0
  1926 ;;      Totals:         0       8       0       0       0
  1927 ;;Total ram usage:        8 bytes
  1928 ;; Hardware stack levels used: 1
  1929 ;; Hardware stack levels required when called: 3
  1930 ;; This function calls:
  1931 ;;		___fladd
  1932 ;;		___flsub
  1933 ;;		_trunc
  1934 ;; This function is called by:
  1935 ;;		_result_display
  1936 ;; This function uses a non-reentrant model
  1937 ;;
  1938                           
  1939                           
  1940                           ;psect for function _round
  1941  0B9A                     _round:
  1942  0B9A                     l2279:	
  1943                           ;incstack = 0
  1944                           ; Regs used in _round: [wreg-fsr0h+status,2+status,0+btemp+1+pclath+cstack]
  1945                           
  1946  0B9A  1283               	bcf	3,5	;RP0=0, select bank0
  1947  0B9B  1303               	bcf	3,6	;RP1=0, select bank0
  1948  0B9C  0841               	movf	round@x+3,w
  1949  0B9D  00AE               	movwf	trunc@x+3
  1950  0B9E  0840               	movf	round@x+2,w
  1951  0B9F  00AD               	movwf	trunc@x+2
  1952  0BA0  083F               	movf	round@x+1,w
  1953  0BA1  00AC               	movwf	trunc@x+1
  1954  0BA2  083E               	movf	round@x,w
  1955  0BA3  00AB               	movwf	trunc@x
  1956  0BA4  120A  158A  233E  120A  158A  	fcall	_trunc
  1957  0BA9  1283               	bcf	3,5	;RP0=0, select bank0
  1958  0BAA  1303               	bcf	3,6	;RP1=0, select bank0
  1959  0BAB  082E               	movf	?_trunc+3,w
  1960  0BAC  00B9               	movwf	___flsub@a+3
  1961  0BAD  082D               	movf	?_trunc+2,w
  1962  0BAE  00B8               	movwf	___flsub@a+2
  1963  0BAF  082C               	movf	?_trunc+1,w
  1964  0BB0  00B7               	movwf	___flsub@a+1
  1965  0BB1  082B               	movf	?_trunc,w
  1966  0BB2  00B6               	movwf	___flsub@a
  1967  0BB3  0841               	movf	round@x+3,w
  1968  0BB4  00BD               	movwf	___flsub@b+3
  1969  0BB5  0840               	movf	round@x+2,w
  1970  0BB6  00BC               	movwf	___flsub@b+2
  1971  0BB7  083F               	movf	round@x+1,w
  1972  0BB8  00BB               	movwf	___flsub@b+1
  1973  0BB9  083E               	movf	round@x,w
  1974  0BBA  00BA               	movwf	___flsub@b
  1975  0BBB  160A  118A  2763  120A  158A  	fcall	___flsub
  1976  0BC0  1283               	bcf	3,5	;RP0=0, select bank0
  1977  0BC1  1303               	bcf	3,6	;RP1=0, select bank0
  1978  0BC2  0839               	movf	?___flsub+3,w
  1979  0BC3  00C5               	movwf	round@f+3
  1980  0BC4  0838               	movf	?___flsub+2,w
  1981  0BC5  00C4               	movwf	round@f+2
  1982  0BC6  0837               	movf	?___flsub+1,w
  1983  0BC7  00C3               	movwf	round@f+1
  1984  0BC8  0836               	movf	?___flsub,w
  1985  0BC9  00C2               	movwf	round@f
  1986  0BCA                     l2281:
  1987  0BCA  0845               	movf	round@f+3,w
  1988  0BCB  00F3               	movwf	___fladd@b+3
  1989  0BCC  0844               	movf	round@f+2,w
  1990  0BCD  00F2               	movwf	___fladd@b+2
  1991  0BCE  0843               	movf	round@f+1,w
  1992  0BCF  00F1               	movwf	___fladd@b+1
  1993  0BD0  0842               	movf	round@f,w
  1994  0BD1  00F0               	movwf	___fladd@b
  1995  0BD2  0841               	movf	round@x+3,w
  1996  0BD3  00F7               	movwf	___fladd@a+3
  1997  0BD4  0840               	movf	round@x+2,w
  1998  0BD5  00F6               	movwf	___fladd@a+2
  1999  0BD6  083F               	movf	round@x+1,w
  2000  0BD7  00F5               	movwf	___fladd@a+1
  2001  0BD8  083E               	movf	round@x,w
  2002  0BD9  00F4               	movwf	___fladd@a
  2003  0BDA  120A  118A  2544  120A  158A  	fcall	___fladd
  2004  0BDF  0873               	movf	?___fladd+3,w
  2005  0BE0  1283               	bcf	3,5	;RP0=0, select bank0
  2006  0BE1  1303               	bcf	3,6	;RP1=0, select bank0
  2007  0BE2  00C1               	movwf	round@x+3
  2008  0BE3  0872               	movf	?___fladd+2,w
  2009  0BE4  00C0               	movwf	round@x+2
  2010  0BE5  0871               	movf	?___fladd+1,w
  2011  0BE6  00BF               	movwf	round@x+1
  2012  0BE7  0870               	movf	?___fladd,w
  2013  0BE8  00BE               	movwf	round@x
  2014  0BE9                     l2283:
  2015  0BE9  0841               	movf	round@x+3,w
  2016  0BEA  00AE               	movwf	trunc@x+3
  2017  0BEB  0840               	movf	round@x+2,w
  2018  0BEC  00AD               	movwf	trunc@x+2
  2019  0BED  083F               	movf	round@x+1,w
  2020  0BEE  00AC               	movwf	trunc@x+1
  2021  0BEF  083E               	movf	round@x,w
  2022  0BF0  00AB               	movwf	trunc@x
  2023  0BF1  120A  158A  233E  120A  158A  	fcall	_trunc
  2024  0BF6  1283               	bcf	3,5	;RP0=0, select bank0
  2025  0BF7  1303               	bcf	3,6	;RP1=0, select bank0
  2026  0BF8  082E               	movf	?_trunc+3,w
  2027  0BF9  00C1               	movwf	?_round+3
  2028  0BFA  082D               	movf	?_trunc+2,w
  2029  0BFB  00C0               	movwf	?_round+2
  2030  0BFC  082C               	movf	?_trunc+1,w
  2031  0BFD  00BF               	movwf	?_round+1
  2032  0BFE  082B               	movf	?_trunc,w
  2033  0BFF  00BE               	movwf	?_round
  2034  0C00                     l770:
  2035  0C00  0008               	return
  2036  0C01                     __end_of_round:
  2037                           
  2038                           	psect	text6
  2039  0B3E                     __ptext6:	
  2040 ;; *************** function _trunc *****************
  2041 ;; Defined at:
  2042 ;;		line 13 in file "C:\Program Files\Microchip\xc8\v2.32\pic\sources\c90\common\trunc.c"
  2043 ;; Parameters:    Size  Location     Type
  2044 ;;  x               4   11[BANK0 ] void 
  2045 ;; Auto vars:     Size  Location     Type
  2046 ;;  i               4   16[BANK0 ] void 
  2047 ;;  expon           2   20[BANK0 ] int 
  2048 ;; Return value:  Size  Location     Type
  2049 ;;                  4   11[BANK0 ] int 
  2050 ;; Registers used:
  2051 ;;		wreg, fsr0l, fsr0h, status,2, status,0, btemp+1, pclath, cstack
  2052 ;; Tracked objects:
  2053 ;;		On entry : 0/0
  2054 ;;		On exit  : 0/0
  2055 ;;		Unchanged: 0/0
  2056 ;; Data sizes:     COMMON   BANK0   BANK1   BANK3   BANK2
  2057 ;;      Params:         0       4       0       0       0
  2058 ;;      Locals:         0       6       0       0       0
  2059 ;;      Temps:          0       1       0       0       0
  2060 ;;      Totals:         0      11       0       0       0
  2061 ;;Total ram usage:       11 bytes
  2062 ;; Hardware stack levels used: 1
  2063 ;; Hardware stack levels required when called: 2
  2064 ;; This function calls:
  2065 ;;		___fltol
  2066 ;;		___xxtofl
  2067 ;;		_frexp
  2068 ;; This function is called by:
  2069 ;;		_round
  2070 ;; This function uses a non-reentrant model
  2071 ;;
  2072                           
  2073                           
  2074                           ;psect for function _trunc
  2075  0B3E                     _trunc:
  2076  0B3E                     l2079:	
  2077                           ;incstack = 0
  2078                           ; Regs used in _trunc: [wreg-fsr0h+status,2+status,0+btemp+1+pclath+cstack]
  2079                           
  2080  0B3E  1283               	bcf	3,5	;RP0=0, select bank0
  2081  0B3F  1303               	bcf	3,6	;RP1=0, select bank0
  2082  0B40  082E               	movf	trunc@x+3,w
  2083  0B41  00A3               	movwf	frexp@value+3
  2084  0B42  082D               	movf	trunc@x+2,w
  2085  0B43  00A2               	movwf	frexp@value+2
  2086  0B44  082C               	movf	trunc@x+1,w
  2087  0B45  00A1               	movwf	frexp@value+1
  2088  0B46  082B               	movf	trunc@x,w
  2089  0B47  00A0               	movwf	frexp@value
  2090  0B48  3034               	movlw	(low (trunc@expon| 0))& (0+255)
  2091  0B49  00AF               	movwf	??_trunc
  2092  0B4A  082F               	movf	??_trunc,w
  2093  0B4B  00A4               	movwf	frexp@eptr
  2094  0B4C  120A  158A  22EA  120A  158A  	fcall	_frexp
  2095  0B51                     l2081:
  2096  0B51  1283               	bcf	3,5	;RP0=0, select bank0
  2097  0B52  1303               	bcf	3,6	;RP1=0, select bank0
  2098  0B53  1FB5               	btfss	trunc@expon+1,7
  2099  0B54  2B56               	goto	u2591
  2100  0B55  2B57               	goto	u2590
  2101  0B56                     u2591:
  2102  0B56  2B60               	goto	l2087
  2103  0B57                     u2590:
  2104  0B57                     l2083:
  2105  0B57  3000               	movlw	0
  2106  0B58  00AE               	movwf	?_trunc+3
  2107  0B59  3000               	movlw	0
  2108  0B5A  00AD               	movwf	?_trunc+2
  2109  0B5B  3000               	movlw	0
  2110  0B5C  00AC               	movwf	?_trunc+1
  2111  0B5D  3000               	movlw	0
  2112  0B5E  00AB               	movwf	?_trunc
  2113  0B5F  2B99               	goto	l776
  2114  0B60                     l2087:
  2115  0B60  3000               	movlw	0
  2116  0B61  0235               	subwf	trunc@expon+1,w
  2117  0B62  301D               	movlw	29
  2118  0B63  1903               	skipnz
  2119  0B64  0234               	subwf	trunc@expon,w
  2120  0B65  1C03               	skipc
  2121  0B66  2B68               	goto	u2601
  2122  0B67  2B69               	goto	u2600
  2123  0B68                     u2601:
  2124  0B68  2B6A               	goto	l2091
  2125  0B69                     u2600:
  2126  0B69                     l2089:
  2127  0B69  2B99               	goto	l776
  2128  0B6A                     l2091:
  2129  0B6A  082E               	movf	trunc@x+3,w
  2130  0B6B  00A3               	movwf	___fltol@f1+3
  2131  0B6C  082D               	movf	trunc@x+2,w
  2132  0B6D  00A2               	movwf	___fltol@f1+2
  2133  0B6E  082C               	movf	trunc@x+1,w
  2134  0B6F  00A1               	movwf	___fltol@f1+1
  2135  0B70  082B               	movf	trunc@x,w
  2136  0B71  00A0               	movwf	___fltol@f1
  2137  0B72  120A  158A  24F2  120A  158A  	fcall	___fltol
  2138  0B77  1283               	bcf	3,5	;RP0=0, select bank0
  2139  0B78  1303               	bcf	3,6	;RP1=0, select bank0
  2140  0B79  0823               	movf	?___fltol+3,w
  2141  0B7A  00F3               	movwf	___xxtofl@val+3
  2142  0B7B  0822               	movf	?___fltol+2,w
  2143  0B7C  00F2               	movwf	___xxtofl@val+2
  2144  0B7D  0821               	movf	?___fltol+1,w
  2145  0B7E  00F1               	movwf	___xxtofl@val+1
  2146  0B7F  0820               	movf	?___fltol,w
  2147  0B80  00F0               	movwf	___xxtofl@val
  2148  0B81  3001               	movlw	1
  2149  0B82  120A  158A  2746  120A  158A  	fcall	___xxtofl
  2150  0B87  0873               	movf	?___xxtofl+3,w
  2151  0B88  1283               	bcf	3,5	;RP0=0, select bank0
  2152  0B89  1303               	bcf	3,6	;RP1=0, select bank0
  2153  0B8A  00B3               	movwf	trunc@i+3
  2154  0B8B  0872               	movf	?___xxtofl+2,w
  2155  0B8C  00B2               	movwf	trunc@i+2
  2156  0B8D  0871               	movf	?___xxtofl+1,w
  2157  0B8E  00B1               	movwf	trunc@i+1
  2158  0B8F  0870               	movf	?___xxtofl,w
  2159  0B90  00B0               	movwf	trunc@i
  2160  0B91                     l2093:
  2161  0B91  0833               	movf	trunc@i+3,w
  2162  0B92  00AE               	movwf	?_trunc+3
  2163  0B93  0832               	movf	trunc@i+2,w
  2164  0B94  00AD               	movwf	?_trunc+2
  2165  0B95  0831               	movf	trunc@i+1,w
  2166  0B96  00AC               	movwf	?_trunc+1
  2167  0B97  0830               	movf	trunc@i,w
  2168  0B98  00AB               	movwf	?_trunc
  2169  0B99                     l776:
  2170  0B99  0008               	return
  2171  0B9A                     __end_of_trunc:
  2172                           
  2173                           	psect	text7
  2174  0AEA                     __ptext7:	
  2175 ;; *************** function _frexp *****************
  2176 ;; Defined at:
  2177 ;;		line 254 in file "C:\Program Files\Microchip\xc8\v2.32\pic\sources\c90\common\frexp.c"
  2178 ;; Parameters:    Size  Location     Type
  2179 ;;  value           4    0[BANK0 ] int 
  2180 ;;  eptr            1    4[BANK0 ] PTR int 
  2181 ;;		 -> trunc@expon(2), 
  2182 ;; Auto vars:     Size  Location     Type
  2183 ;;		None
  2184 ;; Return value:  Size  Location     Type
  2185 ;;                  4    0[BANK0 ] PTR int 
  2186 ;; Registers used:
  2187 ;;		wreg, fsr0l, fsr0h, status,2, status,0, btemp+1, pclath, cstack
  2188 ;; Tracked objects:
  2189 ;;		On entry : 0/0
  2190 ;;		On exit  : 0/0
  2191 ;;		Unchanged: 0/0
  2192 ;; Data sizes:     COMMON   BANK0   BANK1   BANK3   BANK2
  2193 ;;      Params:         0       5       0       0       0
  2194 ;;      Locals:         0       0       0       0       0
  2195 ;;      Temps:          2       0       0       0       0
  2196 ;;      Totals:         2       5       0       0       0
  2197 ;;Total ram usage:        7 bytes
  2198 ;; Hardware stack levels used: 1
  2199 ;; Hardware stack levels required when called: 1
  2200 ;; This function calls:
  2201 ;;		___fleq
  2202 ;; This function is called by:
  2203 ;;		_trunc
  2204 ;; This function uses a non-reentrant model
  2205 ;;
  2206                           
  2207                           
  2208                           ;psect for function _frexp
  2209  0AEA                     _frexp:
  2210  0AEA                     l1989:	
  2211                           ;incstack = 0
  2212                           ; Regs used in _frexp: [wreg-fsr0h+status,2+status,0+btemp+1+pclath+cstack]
  2213                           
  2214  0AEA  1283               	bcf	3,5	;RP0=0, select bank0
  2215  0AEB  1303               	bcf	3,6	;RP1=0, select bank0
  2216  0AEC  0823               	movf	frexp@value+3,w
  2217  0AED  00F3               	movwf	___fleq@ff1+3
  2218  0AEE  0822               	movf	frexp@value+2,w
  2219  0AEF  00F2               	movwf	___fleq@ff1+2
  2220  0AF0  0821               	movf	frexp@value+1,w
  2221  0AF1  00F1               	movwf	___fleq@ff1+1
  2222  0AF2  0820               	movf	frexp@value,w
  2223  0AF3  00F0               	movwf	___fleq@ff1
  2224  0AF4  3000               	movlw	0
  2225  0AF5  00F7               	movwf	___fleq@ff2+3
  2226  0AF6  3000               	movlw	0
  2227  0AF7  00F6               	movwf	___fleq@ff2+2
  2228  0AF8  3000               	movlw	0
  2229  0AF9  00F5               	movwf	___fleq@ff2+1
  2230  0AFA  3000               	movlw	0
  2231  0AFB  00F4               	movwf	___fleq@ff2
  2232  0AFC  120A  158A  229C  120A  158A  	fcall	___fleq
  2233  0B01  1C03               	btfss	3,0
  2234  0B02  2B04               	goto	u2441
  2235  0B03  2B05               	goto	u2440
  2236  0B04                     u2441:
  2237  0B04  2B0E               	goto	l1995
  2238  0B05                     u2440:
  2239  0B05                     l1991:
  2240  0B05  1283               	bcf	3,5	;RP0=0, select bank0
  2241  0B06  1303               	bcf	3,6	;RP1=0, select bank0
  2242  0B07  0824               	movf	frexp@eptr,w
  2243  0B08  0084               	movwf	4
  2244  0B09  1383               	bcf	3,7	;select IRP bank0
  2245  0B0A  0180               	clrf	0
  2246  0B0B  0A84               	incf	4,f
  2247  0B0C  0180               	clrf	0
  2248  0B0D  2B3D               	goto	l783
  2249  0B0E                     l1995:
  2250  0B0E  1283               	bcf	3,5	;RP0=0, select bank0
  2251  0B0F  1303               	bcf	3,6	;RP1=0, select bank0
  2252  0B10  0823               	movf	frexp@value+3,w
  2253  0B11  397F               	andlw	127
  2254  0B12  00FC               	movwf	??_frexp
  2255  0B13  01FD               	clrf	??_frexp+1
  2256  0B14  1003               	clrc
  2257  0B15  0DFC               	rlf	??_frexp,f
  2258  0B16  0DFD               	rlf	??_frexp+1,f
  2259  0B17  0824               	movf	frexp@eptr,w
  2260  0B18  0084               	movwf	4
  2261  0B19  087C               	movf	??_frexp,w
  2262  0B1A  1383               	bcf	3,7	;select IRP bank0
  2263  0B1B  0080               	movwf	0
  2264  0B1C  0A84               	incf	4,f
  2265  0B1D  087D               	movf	??_frexp+1,w
  2266  0B1E  0080               	movwf	0
  2267  0B1F  0D22               	rlf	frexp@value+2,w
  2268  0B20  0D22               	rlf	frexp@value+2,w
  2269  0B21  3901               	andlw	1
  2270  0B22  00FC               	movwf	??_frexp
  2271  0B23  01FD               	clrf	??_frexp+1
  2272  0B24  0824               	movf	frexp@eptr,w
  2273  0B25  0084               	movwf	4
  2274  0B26  087C               	movf	??_frexp,w
  2275  0B27  0480               	iorwf	0,f
  2276  0B28  0A84               	incf	4,f
  2277  0B29  087D               	movf	??_frexp+1,w
  2278  0B2A  0480               	iorwf	0,f
  2279  0B2B                     l1997:
  2280  0B2B  0824               	movf	frexp@eptr,w
  2281  0B2C  0084               	movwf	4
  2282  0B2D  3082               	movlw	130
  2283  0B2E  0780               	addwf	0,f
  2284  0B2F  0F84               	incfsz	4,f
  2285  0B30  0800               	movf	0,w
  2286  0B31  1803               	skipnc
  2287  0B32  0A00               	incf	0,w
  2288  0B33  00FF               	movwf	btemp+1
  2289  0B34  30FF               	movlw	255
  2290  0B35  077F               	addwf	btemp+1,w
  2291  0B36  0080               	movwf	0
  2292  0B37  0384               	decf	4,f
  2293  0B38                     l1999:
  2294  0B38  0823               	movf	frexp@value+3,w
  2295  0B39  3980               	andlw	-128
  2296  0B3A  383F               	iorlw	63
  2297  0B3B  00A3               	movwf	frexp@value+3
  2298  0B3C                     l2001:
  2299  0B3C  13A2               	bcf	frexp@value+2,7
  2300  0B3D                     l783:
  2301  0B3D  0008               	return
  2302  0B3E                     __end_of_frexp:
  2303                           
  2304                           	psect	text8
  2305  0A9C                     __ptext8:	
  2306 ;; *************** function ___fleq *****************
  2307 ;; Defined at:
  2308 ;;		line 4 in file "C:\Program Files\Microchip\xc8\v2.32\pic\sources\c90\common\fleq.c"
  2309 ;; Parameters:    Size  Location     Type
  2310 ;;  ff1             4    0[COMMON] PTR int 
  2311 ;;  ff2             4    4[COMMON] PTR int 
  2312 ;; Auto vars:     Size  Location     Type
  2313 ;;		None
  2314 ;; Return value:  Size  Location     Type
  2315 ;;		None               void
  2316 ;; Registers used:
  2317 ;;		wreg, status,2, status,0
  2318 ;; Tracked objects:
  2319 ;;		On entry : 0/0
  2320 ;;		On exit  : 0/0
  2321 ;;		Unchanged: 0/0
  2322 ;; Data sizes:     COMMON   BANK0   BANK1   BANK3   BANK2
  2323 ;;      Params:         8       0       0       0       0
  2324 ;;      Locals:         0       0       0       0       0
  2325 ;;      Temps:          4       0       0       0       0
  2326 ;;      Totals:        12       0       0       0       0
  2327 ;;Total ram usage:       12 bytes
  2328 ;; Hardware stack levels used: 1
  2329 ;; This function calls:
  2330 ;;		Nothing
  2331 ;; This function is called by:
  2332 ;;		_frexp
  2333 ;; This function uses a non-reentrant model
  2334 ;;
  2335                           
  2336                           
  2337                           ;psect for function ___fleq
  2338  0A9C                     ___fleq:
  2339  0A9C                     l1703:	
  2340                           ;incstack = 0
  2341                           ; Regs used in ___fleq: [wreg+status,2+status,0]
  2342                           
  2343  0A9C  3000               	movlw	0
  2344  0A9D  0570               	andwf	___fleq@ff1,w
  2345  0A9E  00F8               	movwf	??___fleq
  2346  0A9F  3000               	movlw	0
  2347  0AA0  0571               	andwf	___fleq@ff1+1,w
  2348  0AA1  00F9               	movwf	??___fleq+1
  2349  0AA2  3080               	movlw	128
  2350  0AA3  0572               	andwf	___fleq@ff1+2,w
  2351  0AA4  00FA               	movwf	??___fleq+2
  2352  0AA5  307F               	movlw	127
  2353  0AA6  0573               	andwf	___fleq@ff1+3,w
  2354  0AA7  00FB               	movwf	??___fleq+3
  2355  0AA8  087B               	movf	??___fleq+3,w
  2356  0AA9  047A               	iorwf	??___fleq+2,w
  2357  0AAA  0479               	iorwf	??___fleq+1,w
  2358  0AAB  0478               	iorwf	??___fleq,w
  2359  0AAC  1D03               	skipz
  2360  0AAD  2AAF               	goto	u1711
  2361  0AAE  2AB0               	goto	u1710
  2362  0AAF                     u1711:
  2363  0AAF  2AB8               	goto	l486
  2364  0AB0                     u1710:
  2365  0AB0                     l1705:
  2366  0AB0  3000               	movlw	0
  2367  0AB1  00F3               	movwf	___fleq@ff1+3
  2368  0AB2  3000               	movlw	0
  2369  0AB3  00F2               	movwf	___fleq@ff1+2
  2370  0AB4  3000               	movlw	0
  2371  0AB5  00F1               	movwf	___fleq@ff1+1
  2372  0AB6  3000               	movlw	0
  2373  0AB7  00F0               	movwf	___fleq@ff1
  2374  0AB8                     l486:
  2375  0AB8  3000               	movlw	0
  2376  0AB9  0574               	andwf	___fleq@ff2,w
  2377  0ABA  00F8               	movwf	??___fleq
  2378  0ABB  3000               	movlw	0
  2379  0ABC  0575               	andwf	___fleq@ff2+1,w
  2380  0ABD  00F9               	movwf	??___fleq+1
  2381  0ABE  3080               	movlw	128
  2382  0ABF  0576               	andwf	___fleq@ff2+2,w
  2383  0AC0  00FA               	movwf	??___fleq+2
  2384  0AC1  307F               	movlw	127
  2385  0AC2  0577               	andwf	___fleq@ff2+3,w
  2386  0AC3  00FB               	movwf	??___fleq+3
  2387  0AC4  087B               	movf	??___fleq+3,w
  2388  0AC5  047A               	iorwf	??___fleq+2,w
  2389  0AC6  0479               	iorwf	??___fleq+1,w
  2390  0AC7  0478               	iorwf	??___fleq,w
  2391  0AC8  1D03               	skipz
  2392  0AC9  2ACB               	goto	u1721
  2393  0ACA  2ACC               	goto	u1720
  2394  0ACB                     u1721:
  2395  0ACB  2AD4               	goto	l487
  2396  0ACC                     u1720:
  2397  0ACC                     l1707:
  2398  0ACC  3000               	movlw	0
  2399  0ACD  00F7               	movwf	___fleq@ff2+3
  2400  0ACE  3000               	movlw	0
  2401  0ACF  00F6               	movwf	___fleq@ff2+2
  2402  0AD0  3000               	movlw	0
  2403  0AD1  00F5               	movwf	___fleq@ff2+1
  2404  0AD2  3000               	movlw	0
  2405  0AD3  00F4               	movwf	___fleq@ff2
  2406  0AD4                     l487:
  2407  0AD4  0877               	movf	___fleq@ff2+3,w
  2408  0AD5  0673               	xorwf	___fleq@ff1+3,w
  2409  0AD6  1D03               	skipz
  2410  0AD7  2AE2               	goto	u1735
  2411  0AD8  0876               	movf	___fleq@ff2+2,w
  2412  0AD9  0672               	xorwf	___fleq@ff1+2,w
  2413  0ADA  1D03               	skipz
  2414  0ADB  2AE2               	goto	u1735
  2415  0ADC  0875               	movf	___fleq@ff2+1,w
  2416  0ADD  0671               	xorwf	___fleq@ff1+1,w
  2417  0ADE  1D03               	skipz
  2418  0ADF  2AE2               	goto	u1735
  2419  0AE0  0874               	movf	___fleq@ff2,w
  2420  0AE1  0670               	xorwf	___fleq@ff1,w
  2421  0AE2                     u1735:
  2422  0AE2  1903               	skipnz
  2423  0AE3  2AE5               	goto	u1731
  2424  0AE4  2AE6               	goto	u1730
  2425  0AE5                     u1731:
  2426  0AE5  2AE8               	goto	l1711
  2427  0AE6                     u1730:
  2428  0AE6                     l1709:
  2429  0AE6  1003               	clrc
  2430  0AE7  2AE9               	goto	l488
  2431  0AE8                     l1711:
  2432  0AE8  1403               	setc
  2433  0AE9                     l488:
  2434  0AE9  0008               	return
  2435  0AEA                     __end_of___fleq:
  2436                           
  2437                           	psect	text9
  2438  0F46                     __ptext9:	
  2439 ;; *************** function ___xxtofl *****************
  2440 ;; Defined at:
  2441 ;;		line 10 in file "C:\Program Files\Microchip\xc8\v2.32\pic\sources\c90\common\xxtofl.c"
  2442 ;; Parameters:    Size  Location     Type
  2443 ;;  sign            1    wreg     unsigned char 
  2444 ;;  val             4    0[COMMON] long 
  2445 ;; Auto vars:     Size  Location     Type
  2446 ;;  sign            1    8[COMMON] unsigned char 
  2447 ;;  arg             4   10[COMMON] unsigned long 
  2448 ;;  exp             1    9[COMMON] unsigned char 
  2449 ;; Return value:  Size  Location     Type
  2450 ;;                  4    0[COMMON] unsigned char 
  2451 ;; Registers used:
  2452 ;;		wreg, status,2, status,0
  2453 ;; Tracked objects:
  2454 ;;		On entry : 0/0
  2455 ;;		On exit  : 0/0
  2456 ;;		Unchanged: 0/0
  2457 ;; Data sizes:     COMMON   BANK0   BANK1   BANK3   BANK2
  2458 ;;      Params:         4       0       0       0       0
  2459 ;;      Locals:         6       0       0       0       0
  2460 ;;      Temps:          4       0       0       0       0
  2461 ;;      Totals:        14       0       0       0       0
  2462 ;;Total ram usage:       14 bytes
  2463 ;; Hardware stack levels used: 1
  2464 ;; This function calls:
  2465 ;;		Nothing
  2466 ;; This function is called by:
  2467 ;;		_result_display
  2468 ;;		_trunc
  2469 ;; This function uses a non-reentrant model
  2470 ;;
  2471                           
  2472                           
  2473                           ;psect for function ___xxtofl
  2474  0F46                     ___xxtofl:
  2475                           
  2476                           ;incstack = 0
  2477                           ; Regs used in ___xxtofl: [wreg+status,2+status,0]
  2478                           ;___xxtofl@sign stored from wreg
  2479  0F46  00F8               	movwf	___xxtofl@sign
  2480  0F47                     l1945:
  2481  0F47  0878               	movf	___xxtofl@sign,w
  2482  0F48  1903               	btfsc	3,2
  2483  0F49  2F4B               	goto	u2301
  2484  0F4A  2F4C               	goto	u2300
  2485  0F4B                     u2301:
  2486  0F4B  2F60               	goto	l1951
  2487  0F4C                     u2300:
  2488  0F4C                     l1947:
  2489  0F4C  1FF3               	btfss	___xxtofl@val+3,7
  2490  0F4D  2F4F               	goto	u2311
  2491  0F4E  2F50               	goto	u2310
  2492  0F4F                     u2311:
  2493  0F4F  2F60               	goto	l1951
  2494  0F50                     u2310:
  2495  0F50                     l1949:
  2496  0F50  0970               	comf	___xxtofl@val,w
  2497  0F51  00FA               	movwf	___xxtofl@arg
  2498  0F52  0971               	comf	___xxtofl@val+1,w
  2499  0F53  00FB               	movwf	___xxtofl@arg+1
  2500  0F54  0972               	comf	___xxtofl@val+2,w
  2501  0F55  00FC               	movwf	___xxtofl@arg+2
  2502  0F56  0973               	comf	___xxtofl@val+3,w
  2503  0F57  00FD               	movwf	___xxtofl@arg+3
  2504  0F58  0AFA               	incf	___xxtofl@arg,f
  2505  0F59  1903               	skipnz
  2506  0F5A  0AFB               	incf	___xxtofl@arg+1,f
  2507  0F5B  1903               	skipnz
  2508  0F5C  0AFC               	incf	___xxtofl@arg+2,f
  2509  0F5D  1903               	skipnz
  2510  0F5E  0AFD               	incf	___xxtofl@arg+3,f
  2511  0F5F  2F68               	goto	l750
  2512  0F60                     l1951:
  2513  0F60  0873               	movf	___xxtofl@val+3,w
  2514  0F61  00FD               	movwf	___xxtofl@arg+3
  2515  0F62  0872               	movf	___xxtofl@val+2,w
  2516  0F63  00FC               	movwf	___xxtofl@arg+2
  2517  0F64  0871               	movf	___xxtofl@val+1,w
  2518  0F65  00FB               	movwf	___xxtofl@arg+1
  2519  0F66  0870               	movf	___xxtofl@val,w
  2520  0F67  00FA               	movwf	___xxtofl@arg
  2521  0F68                     l750:
  2522  0F68  0873               	movf	___xxtofl@val+3,w
  2523  0F69  0472               	iorwf	___xxtofl@val+2,w
  2524  0F6A  0471               	iorwf	___xxtofl@val+1,w
  2525  0F6B  0470               	iorwf	___xxtofl@val,w
  2526  0F6C  1D03               	skipz
  2527  0F6D  2F6F               	goto	u2321
  2528  0F6E  2F70               	goto	u2320
  2529  0F6F                     u2321:
  2530  0F6F  2F79               	goto	l1957
  2531  0F70                     u2320:
  2532  0F70                     l1953:
  2533  0F70  3000               	movlw	0
  2534  0F71  00F3               	movwf	?___xxtofl+3
  2535  0F72  3000               	movlw	0
  2536  0F73  00F2               	movwf	?___xxtofl+2
  2537  0F74  3000               	movlw	0
  2538  0F75  00F1               	movwf	?___xxtofl+1
  2539  0F76  3000               	movlw	0
  2540  0F77  00F0               	movwf	?___xxtofl
  2541  0F78  2FFF               	goto	l752
  2542  0F79                     l1957:
  2543  0F79  3096               	movlw	150
  2544  0F7A  00F4               	movwf	??___xxtofl
  2545  0F7B  0874               	movf	??___xxtofl,w
  2546  0F7C  00F9               	movwf	___xxtofl@exp
  2547  0F7D  2F8B               	goto	l1961
  2548  0F7E                     l1959:
  2549  0F7E  3001               	movlw	1
  2550  0F7F  00F4               	movwf	??___xxtofl
  2551  0F80  0874               	movf	??___xxtofl,w
  2552  0F81  07F9               	addwf	___xxtofl@exp,f
  2553  0F82  3001               	movlw	1
  2554  0F83                     u2335:
  2555  0F83  1003               	clrc
  2556  0F84  0CFD               	rrf	___xxtofl@arg+3,f
  2557  0F85  0CFC               	rrf	___xxtofl@arg+2,f
  2558  0F86  0CFB               	rrf	___xxtofl@arg+1,f
  2559  0F87  0CFA               	rrf	___xxtofl@arg,f
  2560  0F88  3EFF               	addlw	-1
  2561  0F89  1D03               	skipz
  2562  0F8A  2F83               	goto	u2335
  2563  0F8B                     l1961:
  2564  0F8B  30FE               	movlw	254
  2565  0F8C  057D               	andwf	___xxtofl@arg+3,w
  2566  0F8D  1D03               	btfss	3,2
  2567  0F8E  2F90               	goto	u2341
  2568  0F8F  2F91               	goto	u2340
  2569  0F90                     u2341:
  2570  0F90  2F7E               	goto	l1959
  2571  0F91                     u2340:
  2572  0F91  2FAD               	goto	l756
  2573  0F92                     l1963:
  2574  0F92  3001               	movlw	1
  2575  0F93  00F4               	movwf	??___xxtofl
  2576  0F94  0874               	movf	??___xxtofl,w
  2577  0F95  07F9               	addwf	___xxtofl@exp,f
  2578  0F96                     l1965:
  2579  0F96  3001               	movlw	1
  2580  0F97  07FA               	addwf	___xxtofl@arg,f
  2581  0F98  3000               	movlw	0
  2582  0F99  1803               	skipnc
  2583  0F9A  3001               	movlw	1
  2584  0F9B  07FB               	addwf	___xxtofl@arg+1,f
  2585  0F9C  3000               	movlw	0
  2586  0F9D  1803               	skipnc
  2587  0F9E  3001               	movlw	1
  2588  0F9F  07FC               	addwf	___xxtofl@arg+2,f
  2589  0FA0  3000               	movlw	0
  2590  0FA1  1803               	skipnc
  2591  0FA2  3001               	movlw	1
  2592  0FA3  07FD               	addwf	___xxtofl@arg+3,f
  2593  0FA4                     l1967:
  2594  0FA4  3001               	movlw	1
  2595  0FA5                     u2355:
  2596  0FA5  1003               	clrc
  2597  0FA6  0CFD               	rrf	___xxtofl@arg+3,f
  2598  0FA7  0CFC               	rrf	___xxtofl@arg+2,f
  2599  0FA8  0CFB               	rrf	___xxtofl@arg+1,f
  2600  0FA9  0CFA               	rrf	___xxtofl@arg,f
  2601  0FAA  3EFF               	addlw	-1
  2602  0FAB  1D03               	skipz
  2603  0FAC  2FA5               	goto	u2355
  2604  0FAD                     l756:
  2605  0FAD  30FF               	movlw	255
  2606  0FAE  057D               	andwf	___xxtofl@arg+3,w
  2607  0FAF  1D03               	btfss	3,2
  2608  0FB0  2FB2               	goto	u2361
  2609  0FB1  2FB3               	goto	u2360
  2610  0FB2                     u2361:
  2611  0FB2  2F92               	goto	l1963
  2612  0FB3                     u2360:
  2613  0FB3  2FBF               	goto	l1971
  2614  0FB4                     l1969:
  2615  0FB4  3001               	movlw	1
  2616  0FB5  02F9               	subwf	___xxtofl@exp,f
  2617  0FB6  3001               	movlw	1
  2618  0FB7  00F4               	movwf	??___xxtofl
  2619  0FB8                     u2375:
  2620  0FB8  1003               	clrc
  2621  0FB9  0DFA               	rlf	___xxtofl@arg,f
  2622  0FBA  0DFB               	rlf	___xxtofl@arg+1,f
  2623  0FBB  0DFC               	rlf	___xxtofl@arg+2,f
  2624  0FBC  0DFD               	rlf	___xxtofl@arg+3,f
  2625  0FBD  0BF4               	decfsz	??___xxtofl,f
  2626  0FBE  2FB8               	goto	u2375
  2627  0FBF                     l1971:
  2628  0FBF  1BFC               	btfsc	___xxtofl@arg+2,7
  2629  0FC0  2FC2               	goto	u2381
  2630  0FC1  2FC3               	goto	u2380
  2631  0FC2                     u2381:
  2632  0FC2  2FC9               	goto	l763
  2633  0FC3                     u2380:
  2634  0FC3                     l1973:
  2635  0FC3  3002               	movlw	2
  2636  0FC4  0279               	subwf	___xxtofl@exp,w
  2637  0FC5  1803               	skipnc
  2638  0FC6  2FC8               	goto	u2391
  2639  0FC7  2FC9               	goto	u2390
  2640  0FC8                     u2391:
  2641  0FC8  2FB4               	goto	l1969
  2642  0FC9                     u2390:
  2643  0FC9                     l763:
  2644  0FC9  1879               	btfsc	___xxtofl@exp,0
  2645  0FCA  2FCC               	goto	u2401
  2646  0FCB  2FCD               	goto	u2400
  2647  0FCC                     u2401:
  2648  0FCC  2FD5               	goto	l764
  2649  0FCD                     u2400:
  2650  0FCD                     l1975:
  2651  0FCD  30FF               	movlw	255
  2652  0FCE  05FA               	andwf	___xxtofl@arg,f
  2653  0FCF  30FF               	movlw	255
  2654  0FD0  05FB               	andwf	___xxtofl@arg+1,f
  2655  0FD1  307F               	movlw	127
  2656  0FD2  05FC               	andwf	___xxtofl@arg+2,f
  2657  0FD3  30FF               	movlw	255
  2658  0FD4  05FD               	andwf	___xxtofl@arg+3,f
  2659  0FD5                     l764:
  2660  0FD5  1003               	clrc
  2661  0FD6  0CF9               	rrf	___xxtofl@exp,f
  2662  0FD7                     l1977:
  2663  0FD7  0879               	movf	___xxtofl@exp,w
  2664  0FD8  00F4               	movwf	??___xxtofl
  2665  0FD9  01F5               	clrf	??___xxtofl+1
  2666  0FDA  01F6               	clrf	??___xxtofl+2
  2667  0FDB  01F7               	clrf	??___xxtofl+3
  2668  0FDC  3018               	movlw	24
  2669  0FDD                     u2415:
  2670  0FDD  1003               	clrc
  2671  0FDE  0DF4               	rlf	??___xxtofl,f
  2672  0FDF  0DF5               	rlf	??___xxtofl+1,f
  2673  0FE0  0DF6               	rlf	??___xxtofl+2,f
  2674  0FE1  0DF7               	rlf	??___xxtofl+3,f
  2675  0FE2                     u2410:
  2676  0FE2  3EFF               	addlw	-1
  2677  0FE3  1D03               	skipz
  2678  0FE4  2FDD               	goto	u2415
  2679  0FE5  0874               	movf	??___xxtofl,w
  2680  0FE6  04FA               	iorwf	___xxtofl@arg,f
  2681  0FE7  0875               	movf	??___xxtofl+1,w
  2682  0FE8  04FB               	iorwf	___xxtofl@arg+1,f
  2683  0FE9  0876               	movf	??___xxtofl+2,w
  2684  0FEA  04FC               	iorwf	___xxtofl@arg+2,f
  2685  0FEB  0877               	movf	??___xxtofl+3,w
  2686  0FEC  04FD               	iorwf	___xxtofl@arg+3,f
  2687  0FED                     l1979:
  2688  0FED  0878               	movf	___xxtofl@sign,w
  2689  0FEE  1903               	btfsc	3,2
  2690  0FEF  2FF1               	goto	u2421
  2691  0FF0  2FF2               	goto	u2420
  2692  0FF1                     u2421:
  2693  0FF1  2FF7               	goto	l1985
  2694  0FF2                     u2420:
  2695  0FF2                     l1981:
  2696  0FF2  1FF3               	btfss	___xxtofl@val+3,7
  2697  0FF3  2FF5               	goto	u2431
  2698  0FF4  2FF6               	goto	u2430
  2699  0FF5                     u2431:
  2700  0FF5  2FF7               	goto	l1985
  2701  0FF6                     u2430:
  2702  0FF6                     l1983:
  2703  0FF6  17FD               	bsf	___xxtofl@arg+3,7
  2704  0FF7                     l1985:
  2705  0FF7  087D               	movf	___xxtofl@arg+3,w
  2706  0FF8  00F3               	movwf	?___xxtofl+3
  2707  0FF9  087C               	movf	___xxtofl@arg+2,w
  2708  0FFA  00F2               	movwf	?___xxtofl+2
  2709  0FFB  087B               	movf	___xxtofl@arg+1,w
  2710  0FFC  00F1               	movwf	?___xxtofl+1
  2711  0FFD  087A               	movf	___xxtofl@arg,w
  2712  0FFE  00F0               	movwf	?___xxtofl
  2713  0FFF                     l752:
  2714  0FFF  0008               	return
  2715  1000                     __end_of___xxtofl:
  2716                           
  2717                           	psect	text10
  2718  0CF2                     __ptext10:	
  2719 ;; *************** function ___fltol *****************
  2720 ;; Defined at:
  2721 ;;		line 43 in file "C:\Program Files\Microchip\xc8\v2.32\pic\sources\c90\common\fltol.c"
  2722 ;; Parameters:    Size  Location     Type
  2723 ;;  f1              4    0[BANK0 ] unsigned char 
  2724 ;; Auto vars:     Size  Location     Type
  2725 ;;  exp1            1   10[BANK0 ] unsigned char 
  2726 ;;  sign1           1    9[BANK0 ] unsigned char 
  2727 ;; Return value:  Size  Location     Type
  2728 ;;                  4    0[BANK0 ] long 
  2729 ;; Registers used:
  2730 ;;		wreg, status,2, status,0
  2731 ;; Tracked objects:
  2732 ;;		On entry : 0/0
  2733 ;;		On exit  : 0/0
  2734 ;;		Unchanged: 0/0
  2735 ;; Data sizes:     COMMON   BANK0   BANK1   BANK3   BANK2
  2736 ;;      Params:         0       4       0       0       0
  2737 ;;      Locals:         0       2       0       0       0
  2738 ;;      Temps:          0       5       0       0       0
  2739 ;;      Totals:         0      11       0       0       0
  2740 ;;Total ram usage:       11 bytes
  2741 ;; Hardware stack levels used: 1
  2742 ;; This function calls:
  2743 ;;		Nothing
  2744 ;; This function is called by:
  2745 ;;		_result_display
  2746 ;;		_trunc
  2747 ;; This function uses a non-reentrant model
  2748 ;;
  2749                           
  2750                           
  2751                           ;psect for function ___fltol
  2752  0CF2                     ___fltol:
  2753  0CF2                     l1715:	
  2754                           ;incstack = 0
  2755                           ; Regs used in ___fltol: [wreg+status,2+status,0]
  2756                           
  2757  0CF2  1003               	clrc
  2758  0CF3  1283               	bcf	3,5	;RP0=0, select bank0
  2759  0CF4  1303               	bcf	3,6	;RP1=0, select bank0
  2760  0CF5  0D22               	rlf	___fltol@f1+2,w
  2761  0CF6  0D23               	rlf	___fltol@f1+3,w
  2762  0CF7  00A4               	movwf	??___fltol
  2763  0CF8  0824               	movf	??___fltol,w
  2764  0CF9  00AA               	movwf	___fltol@exp1
  2765  0CFA  082A               	movf	___fltol@exp1,w
  2766  0CFB  1D03               	btfss	3,2
  2767  0CFC  2CFE               	goto	u1741
  2768  0CFD  2CFF               	goto	u1740
  2769  0CFE                     u1741:
  2770  0CFE  2D08               	goto	l1721
  2771  0CFF                     u1740:
  2772  0CFF                     l1717:
  2773  0CFF  3000               	movlw	0
  2774  0D00  00A3               	movwf	?___fltol+3
  2775  0D01  3000               	movlw	0
  2776  0D02  00A2               	movwf	?___fltol+2
  2777  0D03  3000               	movlw	0
  2778  0D04  00A1               	movwf	?___fltol+1
  2779  0D05  3000               	movlw	0
  2780  0D06  00A0               	movwf	?___fltol
  2781  0D07  2D6D               	goto	l503
  2782  0D08                     l1721:
  2783  0D08  0820               	movf	___fltol@f1,w
  2784  0D09  00A4               	movwf	??___fltol
  2785  0D0A  0821               	movf	___fltol@f1+1,w
  2786  0D0B  00A5               	movwf	??___fltol+1
  2787  0D0C  0822               	movf	___fltol@f1+2,w
  2788  0D0D  00A6               	movwf	??___fltol+2
  2789  0D0E  0823               	movf	___fltol@f1+3,w
  2790  0D0F  00A7               	movwf	??___fltol+3
  2791  0D10  301F               	movlw	31
  2792  0D11                     u1755:
  2793  0D11  1003               	clrc
  2794  0D12  0CA7               	rrf	??___fltol+3,f
  2795  0D13  0CA6               	rrf	??___fltol+2,f
  2796  0D14  0CA5               	rrf	??___fltol+1,f
  2797  0D15  0CA4               	rrf	??___fltol,f
  2798  0D16                     u1750:
  2799  0D16  3EFF               	addlw	-1
  2800  0D17  1D03               	skipz
  2801  0D18  2D11               	goto	u1755
  2802  0D19  0824               	movf	??___fltol,w
  2803  0D1A  00A8               	movwf	??___fltol+4
  2804  0D1B  0828               	movf	??___fltol+4,w
  2805  0D1C  00A9               	movwf	___fltol@sign1
  2806  0D1D                     l1723:
  2807  0D1D  17A2               	bsf	___fltol@f1+2,7
  2808  0D1E                     l1725:
  2809  0D1E  30FF               	movlw	255
  2810  0D1F  05A0               	andwf	___fltol@f1,f
  2811  0D20  30FF               	movlw	255
  2812  0D21  05A1               	andwf	___fltol@f1+1,f
  2813  0D22  30FF               	movlw	255
  2814  0D23  05A2               	andwf	___fltol@f1+2,f
  2815  0D24  3000               	movlw	0
  2816  0D25  05A3               	andwf	___fltol@f1+3,f
  2817  0D26                     l1727:
  2818  0D26  3096               	movlw	150
  2819  0D27  02AA               	subwf	___fltol@exp1,f
  2820  0D28                     l1729:
  2821  0D28  1FAA               	btfss	___fltol@exp1,7
  2822  0D29  2D2B               	goto	u1761
  2823  0D2A  2D2C               	goto	u1760
  2824  0D2B                     u1761:
  2825  0D2B  2D46               	goto	l1739
  2826  0D2C                     u1760:
  2827  0D2C                     l1731:
  2828  0D2C  082A               	movf	___fltol@exp1,w
  2829  0D2D  3A80               	xorlw	128
  2830  0D2E  3E97               	addlw	151
  2831  0D2F  1803               	skipnc
  2832  0D30  2D32               	goto	u1771
  2833  0D31  2D33               	goto	u1770
  2834  0D32                     u1771:
  2835  0D32  2D34               	goto	l1737
  2836  0D33                     u1770:
  2837  0D33  2CFF               	goto	l1717
  2838  0D34                     l1737:
  2839  0D34  3001               	movlw	1
  2840  0D35                     u1785:
  2841  0D35  1003               	clrc
  2842  0D36  0CA3               	rrf	___fltol@f1+3,f
  2843  0D37  0CA2               	rrf	___fltol@f1+2,f
  2844  0D38  0CA1               	rrf	___fltol@f1+1,f
  2845  0D39  0CA0               	rrf	___fltol@f1,f
  2846  0D3A  3EFF               	addlw	-1
  2847  0D3B  1D03               	skipz
  2848  0D3C  2D35               	goto	u1785
  2849  0D3D  3001               	movlw	1
  2850  0D3E  00A4               	movwf	??___fltol
  2851  0D3F  0824               	movf	??___fltol,w
  2852  0D40  07AA               	addwf	___fltol@exp1,f
  2853  0D41  1D03               	btfss	3,2
  2854  0D42  2D44               	goto	u1791
  2855  0D43  2D45               	goto	u1790
  2856  0D44                     u1791:
  2857  0D44  2D34               	goto	l1737
  2858  0D45                     u1790:
  2859  0D45  2D5D               	goto	l1747
  2860  0D46                     l1739:
  2861  0D46  3020               	movlw	32
  2862  0D47  022A               	subwf	___fltol@exp1,w
  2863  0D48  1C03               	skipc
  2864  0D49  2D4B               	goto	u1801
  2865  0D4A  2D4C               	goto	u1800
  2866  0D4B                     u1801:
  2867  0D4B  2D58               	goto	l510
  2868  0D4C                     u1800:
  2869  0D4C  2CFF               	goto	l1717
  2870  0D4D                     l1745:
  2871  0D4D  3001               	movlw	1
  2872  0D4E  00A4               	movwf	??___fltol
  2873  0D4F                     u1815:
  2874  0D4F  1003               	clrc
  2875  0D50  0DA0               	rlf	___fltol@f1,f
  2876  0D51  0DA1               	rlf	___fltol@f1+1,f
  2877  0D52  0DA2               	rlf	___fltol@f1+2,f
  2878  0D53  0DA3               	rlf	___fltol@f1+3,f
  2879  0D54  0BA4               	decfsz	??___fltol,f
  2880  0D55  2D4F               	goto	u1815
  2881  0D56  3001               	movlw	1
  2882  0D57  02AA               	subwf	___fltol@exp1,f
  2883  0D58                     l510:
  2884  0D58  082A               	movf	___fltol@exp1,w
  2885  0D59  1D03               	btfss	3,2
  2886  0D5A  2D5C               	goto	u1821
  2887  0D5B  2D5D               	goto	u1820
  2888  0D5C                     u1821:
  2889  0D5C  2D4D               	goto	l1745
  2890  0D5D                     u1820:
  2891  0D5D                     l1747:
  2892  0D5D  0829               	movf	___fltol@sign1,w
  2893  0D5E  1903               	btfsc	3,2
  2894  0D5F  2D61               	goto	u1831
  2895  0D60  2D62               	goto	u1830
  2896  0D61                     u1831:
  2897  0D61  2D6D               	goto	l513
  2898  0D62                     u1830:
  2899  0D62                     l1749:
  2900  0D62  09A0               	comf	___fltol@f1,f
  2901  0D63  09A1               	comf	___fltol@f1+1,f
  2902  0D64  09A2               	comf	___fltol@f1+2,f
  2903  0D65  09A3               	comf	___fltol@f1+3,f
  2904  0D66  0AA0               	incf	___fltol@f1,f
  2905  0D67  1903               	skipnz
  2906  0D68  0AA1               	incf	___fltol@f1+1,f
  2907  0D69  1903               	skipnz
  2908  0D6A  0AA2               	incf	___fltol@f1+2,f
  2909  0D6B  1903               	skipnz
  2910  0D6C  0AA3               	incf	___fltol@f1+3,f
  2911  0D6D                     l513:
  2912  0D6D                     l503:
  2913  0D6D  0008               	return
  2914  0D6E                     __end_of___fltol:
  2915                           
  2916                           	psect	text11
  2917  1763                     __ptext11:	
  2918 ;; *************** function ___flsub *****************
  2919 ;; Defined at:
  2920 ;;		line 242 in file "C:\Program Files\Microchip\xc8\v2.32\pic\sources\c90\common\sprcadd.c"
  2921 ;; Parameters:    Size  Location     Type
  2922 ;;  a               4   22[BANK0 ] long 
  2923 ;;  b               4   26[BANK0 ] long 
  2924 ;; Auto vars:     Size  Location     Type
  2925 ;;		None
  2926 ;; Return value:  Size  Location     Type
  2927 ;;                  4   22[BANK0 ] long 
  2928 ;; Registers used:
  2929 ;;		wreg, status,2, status,0, btemp+1, pclath, cstack
  2930 ;; Tracked objects:
  2931 ;;		On entry : 0/0
  2932 ;;		On exit  : 0/0
  2933 ;;		Unchanged: 0/0
  2934 ;; Data sizes:     COMMON   BANK0   BANK1   BANK3   BANK2
  2935 ;;      Params:         0       8       0       0       0
  2936 ;;      Locals:         0       0       0       0       0
  2937 ;;      Temps:          0       0       0       0       0
  2938 ;;      Totals:         0       8       0       0       0
  2939 ;;Total ram usage:        8 bytes
  2940 ;; Hardware stack levels used: 1
  2941 ;; Hardware stack levels required when called: 1
  2942 ;; This function calls:
  2943 ;;		___fladd
  2944 ;; This function is called by:
  2945 ;;		_round
  2946 ;; This function uses a non-reentrant model
  2947 ;;
  2948                           
  2949                           
  2950                           ;psect for function ___flsub
  2951  1763                     ___flsub:
  2952  1763                     l2073:	
  2953                           ;incstack = 0
  2954                           ; Regs used in ___flsub: [wreg+status,2+status,0+btemp+1+pclath+cstack]
  2955                           
  2956  1763  3080               	movlw	128
  2957  1764  1283               	bcf	3,5	;RP0=0, select bank0
  2958  1765  1303               	bcf	3,6	;RP1=0, select bank0
  2959  1766  06B9               	xorwf	___flsub@a+3,f
  2960  1767                     l2075:
  2961  1767  083D               	movf	___flsub@b+3,w
  2962  1768  00F3               	movwf	___fladd@b+3
  2963  1769  083C               	movf	___flsub@b+2,w
  2964  176A  00F2               	movwf	___fladd@b+2
  2965  176B  083B               	movf	___flsub@b+1,w
  2966  176C  00F1               	movwf	___fladd@b+1
  2967  176D  083A               	movf	___flsub@b,w
  2968  176E  00F0               	movwf	___fladd@b
  2969  176F  0839               	movf	___flsub@a+3,w
  2970  1770  00F7               	movwf	___fladd@a+3
  2971  1771  0838               	movf	___flsub@a+2,w
  2972  1772  00F6               	movwf	___fladd@a+2
  2973  1773  0837               	movf	___flsub@a+1,w
  2974  1774  00F5               	movwf	___fladd@a+1
  2975  1775  0836               	movf	___flsub@a,w
  2976  1776  00F4               	movwf	___fladd@a
  2977  1777  120A  118A  2544  160A  118A  	fcall	___fladd
  2978  177C  0873               	movf	?___fladd+3,w
  2979  177D  1283               	bcf	3,5	;RP0=0, select bank0
  2980  177E  1303               	bcf	3,6	;RP1=0, select bank0
  2981  177F  00B9               	movwf	?___flsub+3
  2982  1780  0872               	movf	?___fladd+2,w
  2983  1781  00B8               	movwf	?___flsub+2
  2984  1782  0871               	movf	?___fladd+1,w
  2985  1783  00B7               	movwf	?___flsub+1
  2986  1784  0870               	movf	?___fladd,w
  2987  1785  00B6               	movwf	?___flsub
  2988  1786                     l656:
  2989  1786  0008               	return
  2990  1787                     __end_of___flsub:
  2991                           
  2992                           	psect	text12
  2993  0544                     __ptext12:	
  2994 ;; *************** function ___fladd *****************
  2995 ;; Defined at:
  2996 ;;		line 10 in file "C:\Program Files\Microchip\xc8\v2.32\pic\sources\c90\common\sprcadd.c"
  2997 ;; Parameters:    Size  Location     Type
  2998 ;;  b               4    0[COMMON] long 
  2999 ;;  a               4    4[COMMON] long 
  3000 ;; Auto vars:     Size  Location     Type
  3001 ;;  grs             1   11[COMMON] unsigned char 
  3002 ;;  bexp            1   10[COMMON] unsigned char 
  3003 ;;  aexp            1    9[COMMON] unsigned char 
  3004 ;;  signs           1    8[COMMON] unsigned char 
  3005 ;; Return value:  Size  Location     Type
  3006 ;;                  4    0[COMMON] unsigned char 
  3007 ;; Registers used:
  3008 ;;		wreg, status,2, status,0, btemp+1
  3009 ;; Tracked objects:
  3010 ;;		On entry : 0/0
  3011 ;;		On exit  : 0/0
  3012 ;;		Unchanged: 0/0
  3013 ;; Data sizes:     COMMON   BANK0   BANK1   BANK3   BANK2
  3014 ;;      Params:         8       0       0       0       0
  3015 ;;      Locals:         4       0       0       0       0
  3016 ;;      Temps:          0       8       0       0       0
  3017 ;;      Totals:        12       8       0       0       0
  3018 ;;Total ram usage:       20 bytes
  3019 ;; Hardware stack levels used: 1
  3020 ;; This function calls:
  3021 ;;		Nothing
  3022 ;; This function is called by:
  3023 ;;		___flsub
  3024 ;;		_round
  3025 ;; This function uses a non-reentrant model
  3026 ;;
  3027                           
  3028                           
  3029                           ;psect for function ___fladd
  3030  0544                     ___fladd:
  3031  0544                     l1751:	
  3032                           ;incstack = 0
  3033                           ; Regs used in ___fladd: [wreg+status,2+status,0+btemp+1]
  3034                           
  3035  0544  0873               	movf	___fladd@b+3,w
  3036  0545  3980               	andlw	128
  3037  0546  1283               	bcf	3,5	;RP0=0, select bank0
  3038  0547  1303               	bcf	3,6	;RP1=0, select bank0
  3039  0548  00A0               	movwf	??___fladd
  3040  0549  0820               	movf	??___fladd,w
  3041  054A  00F8               	movwf	___fladd@signs
  3042  054B                     l1753:
  3043  054B  0873               	movf	___fladd@b+3,w
  3044  054C  00A0               	movwf	??___fladd
  3045  054D  0720               	addwf	??___fladd,w
  3046  054E  00A1               	movwf	??___fladd+1
  3047  054F  0821               	movf	??___fladd+1,w
  3048  0550  00FA               	movwf	___fladd@bexp
  3049  0551                     l1755:
  3050  0551  1FF2               	btfss	___fladd@b+2,7
  3051  0552  2D54               	goto	u1841
  3052  0553  2D55               	goto	u1840
  3053  0554                     u1841:
  3054  0554  2D56               	goto	l1759
  3055  0555                     u1840:
  3056  0555                     l1757:
  3057  0555  147A               	bsf	___fladd@bexp,0
  3058  0556                     l1759:
  3059  0556  087A               	movf	___fladd@bexp,w
  3060  0557  1903               	btfsc	3,2
  3061  0558  2D5A               	goto	u1851
  3062  0559  2D5B               	goto	u1850
  3063  055A                     u1851:
  3064  055A  2D6B               	goto	l1769
  3065  055B                     u1850:
  3066  055B                     l1761:
  3067  055B  0A7A               	incf	___fladd@bexp,w
  3068  055C  1D03               	btfss	3,2
  3069  055D  2D5F               	goto	u1861
  3070  055E  2D60               	goto	u1860
  3071  055F                     u1861:
  3072  055F  2D68               	goto	l1765
  3073  0560                     u1860:
  3074  0560                     l1763:
  3075  0560  3000               	movlw	0
  3076  0561  00F3               	movwf	___fladd@b+3
  3077  0562  3000               	movlw	0
  3078  0563  00F2               	movwf	___fladd@b+2
  3079  0564  3000               	movlw	0
  3080  0565  00F1               	movwf	___fladd@b+1
  3081  0566  3000               	movlw	0
  3082  0567  00F0               	movwf	___fladd@b
  3083  0568                     l1765:
  3084  0568  17F2               	bsf	___fladd@b+2,7
  3085  0569                     l1767:
  3086  0569  01F3               	clrf	___fladd@b+3
  3087  056A  2D73               	goto	l1771
  3088  056B                     l1769:
  3089  056B  3000               	movlw	0
  3090  056C  00F3               	movwf	___fladd@b+3
  3091  056D  3000               	movlw	0
  3092  056E  00F2               	movwf	___fladd@b+2
  3093  056F  3000               	movlw	0
  3094  0570  00F1               	movwf	___fladd@b+1
  3095  0571  3000               	movlw	0
  3096  0572  00F0               	movwf	___fladd@b
  3097  0573                     l1771:
  3098  0573  0877               	movf	___fladd@a+3,w
  3099  0574  3980               	andlw	128
  3100  0575  00A0               	movwf	??___fladd
  3101  0576  0820               	movf	??___fladd,w
  3102  0577  00F9               	movwf	___fladd@aexp
  3103  0578                     l1773:
  3104  0578  0879               	movf	___fladd@aexp,w
  3105  0579  0678               	xorwf	___fladd@signs,w
  3106  057A  1903               	skipnz
  3107  057B  2D7D               	goto	u1871
  3108  057C  2D7E               	goto	u1870
  3109  057D                     u1871:
  3110  057D  2D7F               	goto	l1777
  3111  057E                     u1870:
  3112  057E                     l1775:
  3113  057E  1778               	bsf	___fladd@signs,6
  3114  057F                     l1777:
  3115  057F  0877               	movf	___fladd@a+3,w
  3116  0580  00A0               	movwf	??___fladd
  3117  0581  0720               	addwf	??___fladd,w
  3118  0582  00A1               	movwf	??___fladd+1
  3119  0583  0821               	movf	??___fladd+1,w
  3120  0584  00F9               	movwf	___fladd@aexp
  3121  0585                     l1779:
  3122  0585  1FF6               	btfss	___fladd@a+2,7
  3123  0586  2D88               	goto	u1881
  3124  0587  2D89               	goto	u1880
  3125  0588                     u1881:
  3126  0588  2D8A               	goto	l1783
  3127  0589                     u1880:
  3128  0589                     l1781:
  3129  0589  1479               	bsf	___fladd@aexp,0
  3130  058A                     l1783:
  3131  058A  0879               	movf	___fladd@aexp,w
  3132  058B  1903               	btfsc	3,2
  3133  058C  2D8E               	goto	u1891
  3134  058D  2D8F               	goto	u1890
  3135  058E                     u1891:
  3136  058E  2D9F               	goto	l1793
  3137  058F                     u1890:
  3138  058F                     l1785:
  3139  058F  0A79               	incf	___fladd@aexp,w
  3140  0590  1D03               	btfss	3,2
  3141  0591  2D93               	goto	u1901
  3142  0592  2D94               	goto	u1900
  3143  0593                     u1901:
  3144  0593  2D9C               	goto	l1789
  3145  0594                     u1900:
  3146  0594                     l1787:
  3147  0594  3000               	movlw	0
  3148  0595  00F7               	movwf	___fladd@a+3
  3149  0596  3000               	movlw	0
  3150  0597  00F6               	movwf	___fladd@a+2
  3151  0598  3000               	movlw	0
  3152  0599  00F5               	movwf	___fladd@a+1
  3153  059A  3000               	movlw	0
  3154  059B  00F4               	movwf	___fladd@a
  3155  059C                     l1789:
  3156  059C  17F6               	bsf	___fladd@a+2,7
  3157  059D                     l1791:
  3158  059D  01F7               	clrf	___fladd@a+3
  3159  059E  2DA7               	goto	l610
  3160  059F                     l1793:
  3161  059F  3000               	movlw	0
  3162  05A0  00F7               	movwf	___fladd@a+3
  3163  05A1  3000               	movlw	0
  3164  05A2  00F6               	movwf	___fladd@a+2
  3165  05A3  3000               	movlw	0
  3166  05A4  00F5               	movwf	___fladd@a+1
  3167  05A5  3000               	movlw	0
  3168  05A6  00F4               	movwf	___fladd@a
  3169  05A7                     l610:
  3170  05A7  087A               	movf	___fladd@bexp,w
  3171  05A8  0279               	subwf	___fladd@aexp,w
  3172  05A9  1803               	skipnc
  3173  05AA  2DAC               	goto	u1911
  3174  05AB  2DAD               	goto	u1910
  3175  05AC                     u1911:
  3176  05AC  2DF1               	goto	l1829
  3177  05AD                     u1910:
  3178  05AD                     l1795:
  3179  05AD  1F78               	btfss	___fladd@signs,6
  3180  05AE  2DB0               	goto	u1921
  3181  05AF  2DB1               	goto	u1920
  3182  05B0                     u1921:
  3183  05B0  2DB5               	goto	l1799
  3184  05B1                     u1920:
  3185  05B1                     l1797:
  3186  05B1  3080               	movlw	128
  3187  05B2  00A0               	movwf	??___fladd
  3188  05B3  0820               	movf	??___fladd,w
  3189  05B4  06F8               	xorwf	___fladd@signs,f
  3190  05B5                     l1799:
  3191  05B5  087A               	movf	___fladd@bexp,w
  3192  05B6  00A0               	movwf	??___fladd
  3193  05B7  0820               	movf	??___fladd,w
  3194  05B8  00FB               	movwf	___fladd@grs
  3195  05B9                     l1801:
  3196  05B9  0879               	movf	___fladd@aexp,w
  3197  05BA  00A0               	movwf	??___fladd
  3198  05BB  0820               	movf	??___fladd,w
  3199  05BC  00FA               	movwf	___fladd@bexp
  3200  05BD                     l1803:
  3201  05BD  087B               	movf	___fladd@grs,w
  3202  05BE  00A0               	movwf	??___fladd
  3203  05BF  0820               	movf	??___fladd,w
  3204  05C0  00F9               	movwf	___fladd@aexp
  3205  05C1                     l1805:
  3206  05C1  0870               	movf	___fladd@b,w
  3207  05C2  00A0               	movwf	??___fladd
  3208  05C3  0820               	movf	??___fladd,w
  3209  05C4  00FB               	movwf	___fladd@grs
  3210  05C5                     l1807:
  3211  05C5  0874               	movf	___fladd@a,w
  3212  05C6  00A0               	movwf	??___fladd
  3213  05C7  0820               	movf	??___fladd,w
  3214  05C8  00F0               	movwf	___fladd@b
  3215  05C9                     l1809:
  3216  05C9  087B               	movf	___fladd@grs,w
  3217  05CA  00A0               	movwf	??___fladd
  3218  05CB  0820               	movf	??___fladd,w
  3219  05CC  00F4               	movwf	___fladd@a
  3220  05CD                     l1811:
  3221  05CD  0871               	movf	___fladd@b+1,w
  3222  05CE  00A0               	movwf	??___fladd
  3223  05CF  0820               	movf	??___fladd,w
  3224  05D0  00FB               	movwf	___fladd@grs
  3225  05D1                     l1813:
  3226  05D1  0875               	movf	___fladd@a+1,w
  3227  05D2  00A0               	movwf	??___fladd
  3228  05D3  0820               	movf	??___fladd,w
  3229  05D4  00F1               	movwf	___fladd@b+1
  3230  05D5                     l1815:
  3231  05D5  087B               	movf	___fladd@grs,w
  3232  05D6  00A0               	movwf	??___fladd
  3233  05D7  0820               	movf	??___fladd,w
  3234  05D8  00F5               	movwf	___fladd@a+1
  3235  05D9                     l1817:
  3236  05D9  0872               	movf	___fladd@b+2,w
  3237  05DA  00A0               	movwf	??___fladd
  3238  05DB  0820               	movf	??___fladd,w
  3239  05DC  00FB               	movwf	___fladd@grs
  3240  05DD                     l1819:
  3241  05DD  0876               	movf	___fladd@a+2,w
  3242  05DE  00A0               	movwf	??___fladd
  3243  05DF  0820               	movf	??___fladd,w
  3244  05E0  00F2               	movwf	___fladd@b+2
  3245  05E1                     l1821:
  3246  05E1  087B               	movf	___fladd@grs,w
  3247  05E2  00A0               	movwf	??___fladd
  3248  05E3  0820               	movf	??___fladd,w
  3249  05E4  00F6               	movwf	___fladd@a+2
  3250  05E5                     l1823:
  3251  05E5  0873               	movf	___fladd@b+3,w
  3252  05E6  00A0               	movwf	??___fladd
  3253  05E7  0820               	movf	??___fladd,w
  3254  05E8  00FB               	movwf	___fladd@grs
  3255  05E9                     l1825:
  3256  05E9  0877               	movf	___fladd@a+3,w
  3257  05EA  00A0               	movwf	??___fladd
  3258  05EB  0820               	movf	??___fladd,w
  3259  05EC  00F3               	movwf	___fladd@b+3
  3260  05ED                     l1827:
  3261  05ED  087B               	movf	___fladd@grs,w
  3262  05EE  00A0               	movwf	??___fladd
  3263  05EF  0820               	movf	??___fladd,w
  3264  05F0  00F7               	movwf	___fladd@a+3
  3265  05F1                     l1829:
  3266  05F1  01FB               	clrf	___fladd@grs
  3267  05F2                     l1831:
  3268  05F2  0879               	movf	___fladd@aexp,w
  3269  05F3  00A0               	movwf	??___fladd
  3270  05F4  01A1               	clrf	??___fladd+1
  3271  05F5  0821               	movf	??___fladd+1,w
  3272  05F6  00A3               	movwf	??___fladd+3
  3273  05F7  087A               	movf	___fladd@bexp,w
  3274  05F8  0220               	subwf	??___fladd,w
  3275  05F9  00A2               	movwf	??___fladd+2
  3276  05FA  1C03               	skipc
  3277  05FB  03A3               	decf	??___fladd+3,f
  3278  05FC  0823               	movf	??___fladd+3,w
  3279  05FD  3A80               	xorlw	128
  3280  05FE  00FF               	movwf	btemp+1
  3281  05FF  3080               	movlw	128
  3282  0600  027F               	subwf	btemp+1,w
  3283  0601  1D03               	skipz
  3284  0602  2E05               	goto	u1935
  3285  0603  301A               	movlw	26
  3286  0604  0222               	subwf	??___fladd+2,w
  3287  0605                     u1935:
  3288  0605  1C03               	skipc
  3289  0606  2E08               	goto	u1931
  3290  0607  2E09               	goto	u1930
  3291  0608                     u1931:
  3292  0608  2E4A               	goto	l1847
  3293  0609                     u1930:
  3294  0609                     l1833:
  3295  0609  0873               	movf	___fladd@b+3,w
  3296  060A  0472               	iorwf	___fladd@b+2,w
  3297  060B  0471               	iorwf	___fladd@b+1,w
  3298  060C  0470               	iorwf	___fladd@b,w
  3299  060D  1D03               	skipz
  3300  060E  2E10               	goto	u1941
  3301  060F  2E12               	goto	u1940
  3302  0610                     u1941:
  3303  0610  3001               	movlw	1
  3304  0611  2E13               	goto	u1950
  3305  0612                     u1940:
  3306  0612  3000               	movlw	0
  3307  0613                     u1950:
  3308  0613  1283               	bcf	3,5	;RP0=0, select bank0
  3309  0614  1303               	bcf	3,6	;RP1=0, select bank0
  3310  0615  00A0               	movwf	??___fladd
  3311  0616  0820               	movf	??___fladd,w
  3312  0617  00FB               	movwf	___fladd@grs
  3313  0618  3000               	movlw	0
  3314  0619  00F3               	movwf	___fladd@b+3
  3315  061A  3000               	movlw	0
  3316  061B  00F2               	movwf	___fladd@b+2
  3317  061C  3000               	movlw	0
  3318  061D  00F1               	movwf	___fladd@b+1
  3319  061E  3000               	movlw	0
  3320  061F  00F0               	movwf	___fladd@b
  3321  0620  0879               	movf	___fladd@aexp,w
  3322  0621  00A0               	movwf	??___fladd
  3323  0622  0820               	movf	??___fladd,w
  3324  0623  00FA               	movwf	___fladd@bexp
  3325  0624  2E50               	goto	l614
  3326  0625                     l616:
  3327  0625  1C7B               	btfss	___fladd@grs,0
  3328  0626  2E28               	goto	u1961
  3329  0627  2E29               	goto	u1960
  3330  0628                     u1961:
  3331  0628  2E34               	goto	l1837
  3332  0629                     u1960:
  3333  0629                     l1835:
  3334  0629  087B               	movf	___fladd@grs,w
  3335  062A  1283               	bcf	3,5	;RP0=0, select bank0
  3336  062B  1303               	bcf	3,6	;RP1=0, select bank0
  3337  062C  00A0               	movwf	??___fladd
  3338  062D  1003               	clrc
  3339  062E  0C20               	rrf	??___fladd,w
  3340  062F  3801               	iorlw	1
  3341  0630  00A1               	movwf	??___fladd+1
  3342  0631  0821               	movf	??___fladd+1,w
  3343  0632  00FB               	movwf	___fladd@grs
  3344  0633  2E36               	goto	l1839
  3345  0634                     l1837:
  3346  0634  1003               	clrc
  3347  0635  0CFB               	rrf	___fladd@grs,f
  3348  0636                     l1839:
  3349  0636  1C70               	btfss	___fladd@b,0
  3350  0637  2E39               	goto	u1971
  3351  0638  2E3A               	goto	u1970
  3352  0639                     u1971:
  3353  0639  2E3B               	goto	l1843
  3354  063A                     u1970:
  3355  063A                     l1841:
  3356  063A  17FB               	bsf	___fladd@grs,7
  3357  063B                     l1843:
  3358  063B  3001               	movlw	1
  3359  063C  1283               	bcf	3,5	;RP0=0, select bank0
  3360  063D  1303               	bcf	3,6	;RP1=0, select bank0
  3361  063E  00A0               	movwf	??___fladd
  3362  063F                     u1985:
  3363  063F  0D73               	rlf	___fladd@b+3,w
  3364  0640  0CF3               	rrf	___fladd@b+3,f
  3365  0641  0CF2               	rrf	___fladd@b+2,f
  3366  0642  0CF1               	rrf	___fladd@b+1,f
  3367  0643  0CF0               	rrf	___fladd@b,f
  3368  0644  0BA0               	decfsz	??___fladd& (0+127),f
  3369  0645  2E3F               	goto	u1985
  3370  0646                     l1845:
  3371  0646  3001               	movlw	1
  3372  0647  00A0               	movwf	??___fladd
  3373  0648  0820               	movf	??___fladd,w
  3374  0649  07FA               	addwf	___fladd@bexp,f
  3375  064A                     l1847:
  3376  064A  0879               	movf	___fladd@aexp,w
  3377  064B  027A               	subwf	___fladd@bexp,w
  3378  064C  1C03               	skipc
  3379  064D  2E4F               	goto	u1991
  3380  064E  2E50               	goto	u1990
  3381  064F                     u1991:
  3382  064F  2E25               	goto	l616
  3383  0650                     u1990:
  3384  0650                     l614:
  3385  0650  1B78               	btfsc	___fladd@signs,6
  3386  0651  2E53               	goto	u2001
  3387  0652  2E54               	goto	u2000
  3388  0653                     u2001:
  3389  0653  2EA3               	goto	l1873
  3390  0654                     u2000:
  3391  0654                     l1849:
  3392  0654  087A               	movf	___fladd@bexp,w
  3393  0655  1D03               	btfss	3,2
  3394  0656  2E58               	goto	u2011
  3395  0657  2E59               	goto	u2010
  3396  0658                     u2011:
  3397  0658  2E62               	goto	l1855
  3398  0659                     u2010:
  3399  0659                     l1851:
  3400  0659  3000               	movlw	0
  3401  065A  00F3               	movwf	?___fladd+3
  3402  065B  3000               	movlw	0
  3403  065C  00F2               	movwf	?___fladd+2
  3404  065D  3000               	movlw	0
  3405  065E  00F1               	movwf	?___fladd+1
  3406  065F  3000               	movlw	0
  3407  0660  00F0               	movwf	?___fladd
  3408  0661  2FDB               	goto	l623
  3409  0662                     l1855:
  3410  0662  0874               	movf	___fladd@a,w
  3411  0663  07F0               	addwf	___fladd@b,f
  3412  0664  0875               	movf	___fladd@a+1,w
  3413  0665  1103               	clrz
  3414  0666  1803               	skipnc
  3415  0667  3E01               	addlw	1
  3416  0668  1903               	skipnz
  3417  0669  2E6B               	goto	u2021
  3418  066A  07F1               	addwf	___fladd@b+1,f
  3419  066B                     u2021:
  3420  066B  0876               	movf	___fladd@a+2,w
  3421  066C  1103               	clrz
  3422  066D  1803               	skipnc
  3423  066E  3E01               	addlw	1
  3424  066F  1903               	skipnz
  3425  0670  2E72               	goto	u2022
  3426  0671  07F2               	addwf	___fladd@b+2,f
  3427  0672                     u2022:
  3428  0672  0877               	movf	___fladd@a+3,w
  3429  0673  1103               	clrz
  3430  0674  1803               	skipnc
  3431  0675  3E01               	addlw	1
  3432  0676  1903               	skipnz
  3433  0677  2E79               	goto	u2023
  3434  0678  07F3               	addwf	___fladd@b+3,f
  3435  0679                     u2023:
  3436  0679                     l1857:
  3437  0679  1C73               	btfss	___fladd@b+3,0
  3438  067A  2E7C               	goto	u2031
  3439  067B  2E7D               	goto	u2030
  3440  067C                     u2031:
  3441  067C  2F5B               	goto	l1907
  3442  067D                     u2030:
  3443  067D                     l1859:
  3444  067D  1C7B               	btfss	___fladd@grs,0
  3445  067E  2E80               	goto	u2041
  3446  067F  2E81               	goto	u2040
  3447  0680                     u2041:
  3448  0680  2E8C               	goto	l1863
  3449  0681                     u2040:
  3450  0681                     l1861:
  3451  0681  087B               	movf	___fladd@grs,w
  3452  0682  1283               	bcf	3,5	;RP0=0, select bank0
  3453  0683  1303               	bcf	3,6	;RP1=0, select bank0
  3454  0684  00A0               	movwf	??___fladd
  3455  0685  1003               	clrc
  3456  0686  0C20               	rrf	??___fladd,w
  3457  0687  3801               	iorlw	1
  3458  0688  00A1               	movwf	??___fladd+1
  3459  0689  0821               	movf	??___fladd+1,w
  3460  068A  00FB               	movwf	___fladd@grs
  3461  068B  2E8E               	goto	l1865
  3462  068C                     l1863:
  3463  068C  1003               	clrc
  3464  068D  0CFB               	rrf	___fladd@grs,f
  3465  068E                     l1865:
  3466  068E  1C70               	btfss	___fladd@b,0
  3467  068F  2E91               	goto	u2051
  3468  0690  2E92               	goto	u2050
  3469  0691                     u2051:
  3470  0691  2E93               	goto	l1869
  3471  0692                     u2050:
  3472  0692                     l1867:
  3473  0692  17FB               	bsf	___fladd@grs,7
  3474  0693                     l1869:
  3475  0693  3001               	movlw	1
  3476  0694  1283               	bcf	3,5	;RP0=0, select bank0
  3477  0695  1303               	bcf	3,6	;RP1=0, select bank0
  3478  0696  00A0               	movwf	??___fladd
  3479  0697                     u2065:
  3480  0697  0D73               	rlf	___fladd@b+3,w
  3481  0698  0CF3               	rrf	___fladd@b+3,f
  3482  0699  0CF2               	rrf	___fladd@b+2,f
  3483  069A  0CF1               	rrf	___fladd@b+1,f
  3484  069B  0CF0               	rrf	___fladd@b,f
  3485  069C  0BA0               	decfsz	??___fladd& (0+127),f
  3486  069D  2E97               	goto	u2065
  3487  069E                     l1871:
  3488  069E  3001               	movlw	1
  3489  069F  00A0               	movwf	??___fladd
  3490  06A0  0820               	movf	??___fladd,w
  3491  06A1  07FA               	addwf	___fladd@bexp,f
  3492  06A2  2F5B               	goto	l1907
  3493  06A3                     l1873:
  3494  06A3  0873               	movf	___fladd@b+3,w
  3495  06A4  3A80               	xorlw	128
  3496  06A5  00FF               	movwf	btemp+1
  3497  06A6  0877               	movf	___fladd@a+3,w
  3498  06A7  3A80               	xorlw	128
  3499  06A8  027F               	subwf	btemp+1,w
  3500  06A9  1D03               	skipz
  3501  06AA  2EB5               	goto	u2073
  3502  06AB  0876               	movf	___fladd@a+2,w
  3503  06AC  0272               	subwf	___fladd@b+2,w
  3504  06AD  1D03               	skipz
  3505  06AE  2EB5               	goto	u2073
  3506  06AF  0875               	movf	___fladd@a+1,w
  3507  06B0  0271               	subwf	___fladd@b+1,w
  3508  06B1  1D03               	skipz
  3509  06B2  2EB5               	goto	u2073
  3510  06B3  0874               	movf	___fladd@a,w
  3511  06B4  0270               	subwf	___fladd@b,w
  3512  06B5                     u2073:
  3513  06B5  1803               	skipnc
  3514  06B6  2EB8               	goto	u2071
  3515  06B7  2EB9               	goto	u2070
  3516  06B8                     u2071:
  3517  06B8  2F13               	goto	l1883
  3518  06B9                     u2070:
  3519  06B9                     l1875:
  3520  06B9  30FF               	movlw	255
  3521  06BA  1283               	bcf	3,5	;RP0=0, select bank0
  3522  06BB  1303               	bcf	3,6	;RP1=0, select bank0
  3523  06BC  00A0               	movwf	??___fladd
  3524  06BD  30FF               	movlw	255
  3525  06BE  00A1               	movwf	??___fladd+1
  3526  06BF  30FF               	movlw	255
  3527  06C0  00A2               	movwf	??___fladd+2
  3528  06C1  30FF               	movlw	255
  3529  06C2  00A3               	movwf	??___fladd+3
  3530  06C3  0874               	movf	___fladd@a,w
  3531  06C4  00A4               	movwf	??___fladd+4
  3532  06C5  0875               	movf	___fladd@a+1,w
  3533  06C6  00A5               	movwf	??___fladd+5
  3534  06C7  0876               	movf	___fladd@a+2,w
  3535  06C8  00A6               	movwf	??___fladd+6
  3536  06C9  0877               	movf	___fladd@a+3,w
  3537  06CA  00A7               	movwf	??___fladd+7
  3538  06CB  0870               	movf	___fladd@b,w
  3539  06CC  02A4               	subwf	??___fladd+4,f
  3540  06CD  0871               	movf	___fladd@b+1,w
  3541  06CE  1C03               	skipc
  3542  06CF  0F71               	incfsz	___fladd@b+1,w
  3543  06D0  2ED2               	goto	u2081
  3544  06D1  2ED3               	goto	u2082
  3545  06D2                     u2081:
  3546  06D2  02A5               	subwf	??___fladd+5,f
  3547  06D3                     u2082:
  3548  06D3  0872               	movf	___fladd@b+2,w
  3549  06D4  1C03               	skipc
  3550  06D5  0F72               	incfsz	___fladd@b+2,w
  3551  06D6  2ED8               	goto	u2083
  3552  06D7  2ED9               	goto	u2084
  3553  06D8                     u2083:
  3554  06D8  02A6               	subwf	??___fladd+6,f
  3555  06D9                     u2084:
  3556  06D9  0873               	movf	___fladd@b+3,w
  3557  06DA  1C03               	skipc
  3558  06DB  0F73               	incfsz	___fladd@b+3,w
  3559  06DC  2EDE               	goto	u2085
  3560  06DD  2EDF               	goto	u2086
  3561  06DE                     u2085:
  3562  06DE  02A7               	subwf	??___fladd+7,f
  3563  06DF                     u2086:
  3564  06DF  0824               	movf	??___fladd+4,w
  3565  06E0  07A0               	addwf	??___fladd,f
  3566  06E1  0825               	movf	??___fladd+5,w
  3567  06E2  1803               	skipnc
  3568  06E3  0F25               	incfsz	??___fladd+5,w
  3569  06E4  2EE6               	goto	u2090
  3570  06E5  2EE7               	goto	u2091
  3571  06E6                     u2090:
  3572  06E6  07A1               	addwf	??___fladd+1,f
  3573  06E7                     u2091:
  3574  06E7  0826               	movf	??___fladd+6,w
  3575  06E8  1803               	skipnc
  3576  06E9  0F26               	incfsz	??___fladd+6,w
  3577  06EA  2EEC               	goto	u2092
  3578  06EB  2EED               	goto	u2093
  3579  06EC                     u2092:
  3580  06EC  07A2               	addwf	??___fladd+2,f
  3581  06ED                     u2093:
  3582  06ED  0827               	movf	??___fladd+7,w
  3583  06EE  1803               	skipnc
  3584  06EF  0A27               	incf	??___fladd+7,w
  3585  06F0  07A3               	addwf	??___fladd+3,f
  3586  06F1  0823               	movf	??___fladd+3,w
  3587  06F2  00F3               	movwf	___fladd@b+3
  3588  06F3  0822               	movf	??___fladd+2,w
  3589  06F4  00F2               	movwf	___fladd@b+2
  3590  06F5  0821               	movf	??___fladd+1,w
  3591  06F6  00F1               	movwf	___fladd@b+1
  3592  06F7  0820               	movf	??___fladd,w
  3593  06F8  00F0               	movwf	___fladd@b
  3594  06F9                     l1877:
  3595  06F9  3080               	movlw	128
  3596  06FA  00A0               	movwf	??___fladd
  3597  06FB  0820               	movf	??___fladd,w
  3598  06FC  06F8               	xorwf	___fladd@signs,f
  3599  06FD  09FB               	comf	___fladd@grs,f
  3600  06FE  0AFB               	incf	___fladd@grs,f
  3601  06FF                     l1879:
  3602  06FF  087B               	movf	___fladd@grs,w
  3603  0700  1D03               	btfss	3,2
  3604  0701  2F03               	goto	u2101
  3605  0702  2F04               	goto	u2100
  3606  0703                     u2101:
  3607  0703  2F21               	goto	l631
  3608  0704                     u2100:
  3609  0704                     l1881:
  3610  0704  3001               	movlw	1
  3611  0705  07F0               	addwf	___fladd@b,f
  3612  0706  3000               	movlw	0
  3613  0707  1803               	skipnc
  3614  0708  3001               	movlw	1
  3615  0709  07F1               	addwf	___fladd@b+1,f
  3616  070A  3000               	movlw	0
  3617  070B  1803               	skipnc
  3618  070C  3001               	movlw	1
  3619  070D  07F2               	addwf	___fladd@b+2,f
  3620  070E  3000               	movlw	0
  3621  070F  1803               	skipnc
  3622  0710  3001               	movlw	1
  3623  0711  07F3               	addwf	___fladd@b+3,f
  3624  0712  2F21               	goto	l631
  3625  0713                     l1883:
  3626  0713  0874               	movf	___fladd@a,w
  3627  0714  02F0               	subwf	___fladd@b,f
  3628  0715  0875               	movf	___fladd@a+1,w
  3629  0716  1C03               	skipc
  3630  0717  0F75               	incfsz	___fladd@a+1,w
  3631  0718  02F1               	subwf	___fladd@b+1,f
  3632  0719  0876               	movf	___fladd@a+2,w
  3633  071A  1C03               	skipc
  3634  071B  0F76               	incfsz	___fladd@a+2,w
  3635  071C  02F2               	subwf	___fladd@b+2,f
  3636  071D  0877               	movf	___fladd@a+3,w
  3637  071E  1C03               	skipc
  3638  071F  0F77               	incfsz	___fladd@a+3,w
  3639  0720  02F3               	subwf	___fladd@b+3,f
  3640  0721                     l631:
  3641  0721  0873               	movf	___fladd@b+3,w
  3642  0722  0472               	iorwf	___fladd@b+2,w
  3643  0723  0471               	iorwf	___fladd@b+1,w
  3644  0724  0470               	iorwf	___fladd@b,w
  3645  0725  1D03               	skipz
  3646  0726  2F28               	goto	u2111
  3647  0727  2F29               	goto	u2110
  3648  0728                     u2111:
  3649  0728  2F57               	goto	l1905
  3650  0729                     u2110:
  3651  0729                     l1885:
  3652  0729  087B               	movf	___fladd@grs,w
  3653  072A  1D03               	btfss	3,2
  3654  072B  2F2D               	goto	u2121
  3655  072C  2F2E               	goto	u2120
  3656  072D                     u2121:
  3657  072D  2F57               	goto	l1905
  3658  072E                     u2120:
  3659  072E                     l1887:
  3660  072E  3000               	movlw	0
  3661  072F  00F3               	movwf	?___fladd+3
  3662  0730  3000               	movlw	0
  3663  0731  00F2               	movwf	?___fladd+2
  3664  0732  3000               	movlw	0
  3665  0733  00F1               	movwf	?___fladd+1
  3666  0734  3000               	movlw	0
  3667  0735  00F0               	movwf	?___fladd
  3668  0736  2FDB               	goto	l623
  3669  0737                     l1891:
  3670  0737  3001               	movlw	1
  3671  0738  1283               	bcf	3,5	;RP0=0, select bank0
  3672  0739  1303               	bcf	3,6	;RP1=0, select bank0
  3673  073A  00A0               	movwf	??___fladd
  3674  073B                     u2135:
  3675  073B  1003               	clrc
  3676  073C  0DF0               	rlf	___fladd@b,f
  3677  073D  0DF1               	rlf	___fladd@b+1,f
  3678  073E  0DF2               	rlf	___fladd@b+2,f
  3679  073F  0DF3               	rlf	___fladd@b+3,f
  3680  0740  0BA0               	decfsz	??___fladd,f
  3681  0741  2F3B               	goto	u2135
  3682  0742                     l1893:
  3683  0742  1FFB               	btfss	___fladd@grs,7
  3684  0743  2F45               	goto	u2141
  3685  0744  2F46               	goto	u2140
  3686  0745                     u2141:
  3687  0745  2F47               	goto	l635
  3688  0746                     u2140:
  3689  0746                     l1895:
  3690  0746  1470               	bsf	___fladd@b,0
  3691  0747                     l635:
  3692  0747  1C7B               	btfss	___fladd@grs,0
  3693  0748  2F4A               	goto	u2151
  3694  0749  2F4B               	goto	u2150
  3695  074A                     u2151:
  3696  074A  2F4E               	goto	l1899
  3697  074B                     u2150:
  3698  074B                     l1897:
  3699  074B  1403               	setc
  3700  074C  0DFB               	rlf	___fladd@grs,f
  3701  074D  2F50               	goto	l1901
  3702  074E                     l1899:
  3703  074E  1003               	clrc
  3704  074F  0DFB               	rlf	___fladd@grs,f
  3705  0750                     l1901:
  3706  0750  087A               	movf	___fladd@bexp,w
  3707  0751  1903               	btfsc	3,2
  3708  0752  2F54               	goto	u2161
  3709  0753  2F55               	goto	u2160
  3710  0754                     u2161:
  3711  0754  2F57               	goto	l1905
  3712  0755                     u2160:
  3713  0755                     l1903:
  3714  0755  3001               	movlw	1
  3715  0756  02FA               	subwf	___fladd@bexp,f
  3716  0757                     l1905:
  3717  0757  1FF2               	btfss	___fladd@b+2,7
  3718  0758  2F5A               	goto	u2171
  3719  0759  2F5B               	goto	u2170
  3720  075A                     u2171:
  3721  075A  2F37               	goto	l1891
  3722  075B                     u2170:
  3723  075B                     l1907:
  3724  075B  01F9               	clrf	___fladd@aexp
  3725  075C                     l1909:
  3726  075C  1FFB               	btfss	___fladd@grs,7
  3727  075D  2F5F               	goto	u2181
  3728  075E  2F60               	goto	u2180
  3729  075F                     u2181:
  3730  075F  2F6E               	goto	l1917
  3731  0760                     u2180:
  3732  0760                     l1911:
  3733  0760  087B               	movf	___fladd@grs,w
  3734  0761  397F               	andlw	127
  3735  0762  1903               	btfsc	3,2
  3736  0763  2F65               	goto	u2191
  3737  0764  2F66               	goto	u2190
  3738  0765                     u2191:
  3739  0765  2F69               	goto	l641
  3740  0766                     u2190:
  3741  0766                     l1913:
  3742  0766  01F9               	clrf	___fladd@aexp
  3743  0767  0AF9               	incf	___fladd@aexp,f
  3744  0768  2F6E               	goto	l1917
  3745  0769                     l641:
  3746  0769  1C70               	btfss	___fladd@b,0
  3747  076A  2F6C               	goto	u2201
  3748  076B  2F6D               	goto	u2200
  3749  076C                     u2201:
  3750  076C  2F6E               	goto	l1917
  3751  076D                     u2200:
  3752  076D  2F66               	goto	l1913
  3753  076E                     l1917:
  3754  076E  0879               	movf	___fladd@aexp,w
  3755  076F  1903               	btfsc	3,2
  3756  0770  2F72               	goto	u2211
  3757  0771  2F73               	goto	u2210
  3758  0772                     u2211:
  3759  0772  2FA9               	goto	l644
  3760  0773                     u2210:
  3761  0773                     l1919:
  3762  0773  3001               	movlw	1
  3763  0774  07F0               	addwf	___fladd@b,f
  3764  0775  3000               	movlw	0
  3765  0776  1803               	skipnc
  3766  0777  3001               	movlw	1
  3767  0778  07F1               	addwf	___fladd@b+1,f
  3768  0779  3000               	movlw	0
  3769  077A  1803               	skipnc
  3770  077B  3001               	movlw	1
  3771  077C  07F2               	addwf	___fladd@b+2,f
  3772  077D  3000               	movlw	0
  3773  077E  1803               	skipnc
  3774  077F  3001               	movlw	1
  3775  0780  07F3               	addwf	___fladd@b+3,f
  3776  0781                     l1921:
  3777  0781  1C73               	btfss	___fladd@b+3,0
  3778  0782  2F84               	goto	u2221
  3779  0783  2F85               	goto	u2220
  3780  0784                     u2221:
  3781  0784  2FA9               	goto	l644
  3782  0785                     u2220:
  3783  0785                     l1923:
  3784  0785  0870               	movf	___fladd@b,w
  3785  0786  1283               	bcf	3,5	;RP0=0, select bank0
  3786  0787  1303               	bcf	3,6	;RP1=0, select bank0
  3787  0788  00A0               	movwf	??___fladd
  3788  0789  0871               	movf	___fladd@b+1,w
  3789  078A  00A1               	movwf	??___fladd+1
  3790  078B  0872               	movf	___fladd@b+2,w
  3791  078C  00A2               	movwf	??___fladd+2
  3792  078D  0873               	movf	___fladd@b+3,w
  3793  078E  00A3               	movwf	??___fladd+3
  3794  078F  3001               	movlw	1
  3795  0790  00A4               	movwf	??___fladd+4
  3796  0791                     u2235:
  3797  0791  0D23               	rlf	??___fladd+3,w
  3798  0792  0CA3               	rrf	??___fladd+3,f
  3799  0793  0CA2               	rrf	??___fladd+2,f
  3800  0794  0CA1               	rrf	??___fladd+1,f
  3801  0795  0CA0               	rrf	??___fladd,f
  3802  0796                     u2230:
  3803  0796  0BA4               	decfsz	??___fladd+4,f
  3804  0797  2F91               	goto	u2235
  3805  0798  0823               	movf	??___fladd+3,w
  3806  0799  00F3               	movwf	___fladd@b+3
  3807  079A  0822               	movf	??___fladd+2,w
  3808  079B  00F2               	movwf	___fladd@b+2
  3809  079C  0821               	movf	??___fladd+1,w
  3810  079D  00F1               	movwf	___fladd@b+1
  3811  079E  0820               	movf	??___fladd,w
  3812  079F  00F0               	movwf	___fladd@b
  3813  07A0  0A7A               	incf	___fladd@bexp,w
  3814  07A1  1903               	btfsc	3,2
  3815  07A2  2FA4               	goto	u2241
  3816  07A3  2FA5               	goto	u2240
  3817  07A4                     u2241:
  3818  07A4  2FA9               	goto	l644
  3819  07A5                     u2240:
  3820  07A5                     l1925:
  3821  07A5  3001               	movlw	1
  3822  07A6  00A0               	movwf	??___fladd
  3823  07A7  0820               	movf	??___fladd,w
  3824  07A8  07FA               	addwf	___fladd@bexp,f
  3825  07A9                     l644:
  3826  07A9  0A7A               	incf	___fladd@bexp,w
  3827  07AA  1903               	btfsc	3,2
  3828  07AB  2FAD               	goto	u2251
  3829  07AC  2FAE               	goto	u2250
  3830  07AD                     u2251:
  3831  07AD  2FB3               	goto	l1929
  3832  07AE                     u2250:
  3833  07AE                     l1927:
  3834  07AE  087A               	movf	___fladd@bexp,w
  3835  07AF  1D03               	btfss	3,2
  3836  07B0  2FB2               	goto	u2261
  3837  07B1  2FB3               	goto	u2260
  3838  07B2                     u2261:
  3839  07B2  2FC1               	goto	l1935
  3840  07B3                     u2260:
  3841  07B3                     l1929:
  3842  07B3  3000               	movlw	0
  3843  07B4  00F3               	movwf	___fladd@b+3
  3844  07B5  3000               	movlw	0
  3845  07B6  00F2               	movwf	___fladd@b+2
  3846  07B7  3000               	movlw	0
  3847  07B8  00F1               	movwf	___fladd@b+1
  3848  07B9  3000               	movlw	0
  3849  07BA  00F0               	movwf	___fladd@b
  3850  07BB                     l1931:
  3851  07BB  087A               	movf	___fladd@bexp,w
  3852  07BC  1D03               	btfss	3,2
  3853  07BD  2FBF               	goto	u2271
  3854  07BE  2FC0               	goto	u2270
  3855  07BF                     u2271:
  3856  07BF  2FC1               	goto	l1935
  3857  07C0                     u2270:
  3858  07C0                     l1933:
  3859  07C0  01F8               	clrf	___fladd@signs
  3860  07C1                     l1935:
  3861  07C1  1C7A               	btfss	___fladd@bexp,0
  3862  07C2  2FC4               	goto	u2281
  3863  07C3  2FC5               	goto	u2280
  3864  07C4                     u2281:
  3865  07C4  2FC7               	goto	l1939
  3866  07C5                     u2280:
  3867  07C5                     l1937:
  3868  07C5  17F2               	bsf	___fladd@b+2,7
  3869  07C6  2FCD               	goto	l652
  3870  07C7                     l1939:
  3871  07C7  307F               	movlw	127
  3872  07C8  1283               	bcf	3,5	;RP0=0, select bank0
  3873  07C9  1303               	bcf	3,6	;RP1=0, select bank0
  3874  07CA  00A0               	movwf	??___fladd
  3875  07CB  0820               	movf	??___fladd,w
  3876  07CC  05F2               	andwf	___fladd@b+2,f
  3877  07CD                     l652:
  3878  07CD  087A               	movf	___fladd@bexp,w
  3879  07CE  1283               	bcf	3,5	;RP0=0, select bank0
  3880  07CF  1303               	bcf	3,6	;RP1=0, select bank0
  3881  07D0  00A0               	movwf	??___fladd
  3882  07D1  1003               	clrc
  3883  07D2  0C20               	rrf	??___fladd,w
  3884  07D3  00A1               	movwf	??___fladd+1
  3885  07D4  0821               	movf	??___fladd+1,w
  3886  07D5  00F3               	movwf	___fladd@b+3
  3887  07D6                     l1941:
  3888  07D6  1FF8               	btfss	___fladd@signs,7
  3889  07D7  2FD9               	goto	u2291
  3890  07D8  2FDA               	goto	u2290
  3891  07D9                     u2291:
  3892  07D9  2FDB               	goto	l653
  3893  07DA                     u2290:
  3894  07DA                     l1943:
  3895  07DA  17F3               	bsf	___fladd@b+3,7
  3896  07DB                     l653:
  3897  07DB                     l623:
  3898  07DB  0008               	return
  3899  07DC                     __end_of___fladd:
  3900                           
  3901                           	psect	text13
  3902  0E8C                     __ptext13:	
  3903 ;; *************** function _proceeding_text *****************
  3904 ;; Defined at:
  3905 ;;		line 445 in file "main.c"
  3906 ;; Parameters:    Size  Location     Type
  3907 ;;  a               1    wreg     unsigned char 
  3908 ;;  b               1   54[BANK0 ] unsigned char 
  3909 ;; Auto vars:     Size  Location     Type
  3910 ;;  a               1   58[BANK0 ] unsigned char 
  3911 ;; Return value:  Size  Location     Type
  3912 ;;                  1    wreg      void 
  3913 ;; Registers used:
  3914 ;;		wreg, fsr0l, fsr0h, status,2, status,0, btemp+1, pclath, cstack
  3915 ;; Tracked objects:
  3916 ;;		On entry : 0/0
  3917 ;;		On exit  : 0/0
  3918 ;;		Unchanged: 0/0
  3919 ;; Data sizes:     COMMON   BANK0   BANK1   BANK3   BANK2
  3920 ;;      Params:         0       1       0       0       0
  3921 ;;      Locals:         0       1       0       0       0
  3922 ;;      Temps:          0       3       0       0       0
  3923 ;;      Totals:         0       5       0       0       0
  3924 ;;Total ram usage:        5 bytes
  3925 ;; Hardware stack levels used: 1
  3926 ;; Hardware stack levels required when called: 2
  3927 ;; This function calls:
  3928 ;;		_LCD_cmd
  3929 ;;		_LCD_dat
  3930 ;;		_LCD_num
  3931 ;;		_show
  3932 ;; This function is called by:
  3933 ;;		_main
  3934 ;; This function uses a non-reentrant model
  3935 ;;
  3936                           
  3937                           
  3938                           ;psect for function _proceeding_text
  3939  0E8C                     _proceeding_text:
  3940                           
  3941                           ;incstack = 0
  3942                           ; Regs used in _proceeding_text: [wreg-fsr0h+status,2+status,0+btemp+1+pclath+cstack]
  3943                           ;proceeding_text@a stored from wreg
  3944  0E8C  1283               	bcf	3,5	;RP0=0, select bank0
  3945  0E8D  1303               	bcf	3,6	;RP1=0, select bank0
  3946  0E8E  00DA               	movwf	proceeding_text@a
  3947  0E8F                     l2433:
  3948                           
  3949                           ;main.c: 445: void proceeding_text(unsigned char a,unsigned char b);main.c: 446: {;main.
      +                          c: 447:         LCD_cmd(0x01);
  3950  0E8F  3001               	movlw	1
  3951  0E90  120A  158A  2204  120A  158A  	fcall	_LCD_cmd
  3952                           
  3953                           ;main.c: 448:         LCD_cmd(0x80);
  3954  0E95  3080               	movlw	128
  3955  0E96  120A  158A  2204  120A  158A  	fcall	_LCD_cmd
  3956  0E9B                     l2435:
  3957                           
  3958                           ;main.c: 449:         show("No. Turns: ");
  3959  0E9B  3098               	movlw	low ((STR_8+6)| (0+32768))
  3960  0E9C  00F3               	movwf	show@s
  3961  0E9D  3088               	movlw	high ((STR_8+6)| (0+32768))
  3962  0E9E  00F4               	movwf	show@s+1
  3963  0E9F  120A  118A  2006  120A  158A  	fcall	_show
  3964  0EA4                     l2437:
  3965                           
  3966                           ;main.c: 450:         LCD_num(a);
  3967  0EA4  1283               	bcf	3,5	;RP0=0, select bank0
  3968  0EA5  1303               	bcf	3,6	;RP1=0, select bank0
  3969  0EA6  085A               	movf	proceeding_text@a,w
  3970  0EA7  00D7               	movwf	??_proceeding_text
  3971  0EA8  01D8               	clrf	??_proceeding_text+1
  3972  0EA9  0857               	movf	??_proceeding_text,w
  3973  0EAA  00C6               	movwf	LCD_num@val
  3974  0EAB  0858               	movf	??_proceeding_text+1,w
  3975  0EAC  00C7               	movwf	LCD_num@val+1
  3976  0EAD  120A  118A  23B0  120A  158A  	fcall	_LCD_num
  3977  0EB2                     l2439:
  3978                           
  3979                           ;main.c: 451:         LCD_cmd(0xc0);
  3980  0EB2  30C0               	movlw	192
  3981  0EB3  120A  158A  2204  120A  158A  	fcall	_LCD_cmd
  3982  0EB8                     l2441:
  3983                           
  3984                           ;main.c: 452:         show("Time/Turn: ");
  3985  0EB8  301D               	movlw	low (STR_19| (0+32768))
  3986  0EB9  00F3               	movwf	show@s
  3987  0EBA  3089               	movlw	high (STR_19| (0+32768))
  3988  0EBB  00F4               	movwf	show@s+1
  3989  0EBC  120A  118A  2006  120A  158A  	fcall	_show
  3990                           
  3991                           ;main.c: 453:         LCD_num(turn_time);
  3992  0EC1  1283               	bcf	3,5	;RP0=0, select bank0
  3993  0EC2  1303               	bcf	3,6	;RP1=0, select bank0
  3994  0EC3  086D               	movf	_turn_time,w
  3995  0EC4  00D7               	movwf	??_proceeding_text
  3996  0EC5  01D8               	clrf	??_proceeding_text+1
  3997  0EC6  0857               	movf	??_proceeding_text,w
  3998  0EC7  00C6               	movwf	LCD_num@val
  3999  0EC8  0858               	movf	??_proceeding_text+1,w
  4000  0EC9  00C7               	movwf	LCD_num@val+1
  4001  0ECA  120A  118A  23B0  120A  158A  	fcall	_LCD_num
  4002                           
  4003                           ;main.c: 454:         LCD_cmd(0x94);
  4004  0ECF  3094               	movlw	148
  4005  0ED0  120A  158A  2204  120A  158A  	fcall	_LCD_cmd
  4006  0ED5                     l2443:
  4007                           
  4008                           ;main.c: 455:         show("Total Time: ");
  4009  0ED5  3004               	movlw	low (STR_20| (0+32768))
  4010  0ED6  00F3               	movwf	show@s
  4011  0ED7  3089               	movlw	high (STR_20| (0+32768))
  4012  0ED8  00F4               	movwf	show@s+1
  4013  0ED9  120A  118A  2006  120A  158A  	fcall	_show
  4014  0EDE                     l2445:
  4015                           
  4016                           ;main.c: 456:         LCD_num(b);
  4017  0EDE  1283               	bcf	3,5	;RP0=0, select bank0
  4018  0EDF  1303               	bcf	3,6	;RP1=0, select bank0
  4019  0EE0  0856               	movf	proceeding_text@b,w
  4020  0EE1  00D7               	movwf	??_proceeding_text
  4021  0EE2  01D8               	clrf	??_proceeding_text+1
  4022  0EE3  0857               	movf	??_proceeding_text,w
  4023  0EE4  00C6               	movwf	LCD_num@val
  4024  0EE5  0858               	movf	??_proceeding_text+1,w
  4025  0EE6  00C7               	movwf	LCD_num@val+1
  4026  0EE7  120A  118A  23B0  120A  158A  	fcall	_LCD_num
  4027  0EEC                     l2447:
  4028                           
  4029                           ;main.c: 457:         LCD_cmd(0xD4);
  4030  0EEC  30D4               	movlw	212
  4031  0EED  120A  158A  2204  120A  158A  	fcall	_LCD_cmd
  4032  0EF2                     l2449:
  4033                           
  4034                           ;main.c: 458:         show("Proceeding");
  4035  0EF2  3029               	movlw	low (STR_21| (0+32768))
  4036  0EF3  00F3               	movwf	show@s
  4037  0EF4  3089               	movlw	high (STR_21| (0+32768))
  4038  0EF5  00F4               	movwf	show@s+1
  4039  0EF6  120A  118A  2006  120A  158A  	fcall	_show
  4040  0EFB                     l2451:
  4041                           
  4042                           ;main.c: 459:         _delay((unsigned long)((100)*(20000000/4000.0)));
  4043  0EFB  3003               	movlw	3
  4044  0EFC  1283               	bcf	3,5	;RP0=0, select bank0
  4045  0EFD  1303               	bcf	3,6	;RP1=0, select bank0
  4046  0EFE  00D9               	movwf	??_proceeding_text+2
  4047  0EFF  308A               	movlw	138
  4048  0F00  00D8               	movwf	??_proceeding_text+1
  4049  0F01  3055               	movlw	85
  4050  0F02  00D7               	movwf	??_proceeding_text
  4051  0F03                     u3447:
  4052  0F03  0BD7               	decfsz	??_proceeding_text,f
  4053  0F04  2F03               	goto	u3447
  4054  0F05  0BD8               	decfsz	??_proceeding_text+1,f
  4055  0F06  2F03               	goto	u3447
  4056  0F07  0BD9               	decfsz	??_proceeding_text+2,f
  4057  0F08  2F03               	goto	u3447
  4058  0F09                     l2453:
  4059                           
  4060                           ;main.c: 460:         LCD_dat('.');
  4061  0F09  302E               	movlw	46
  4062  0F0A  120A  158A  2250  120A  158A  	fcall	_LCD_dat
  4063                           
  4064                           ;main.c: 461:         _delay((unsigned long)((100)*(20000000/4000.0)));
  4065  0F0F  3003               	movlw	3
  4066  0F10  1283               	bcf	3,5	;RP0=0, select bank0
  4067  0F11  1303               	bcf	3,6	;RP1=0, select bank0
  4068  0F12  00D9               	movwf	??_proceeding_text+2
  4069  0F13  308A               	movlw	138
  4070  0F14  00D8               	movwf	??_proceeding_text+1
  4071  0F15  3055               	movlw	85
  4072  0F16  00D7               	movwf	??_proceeding_text
  4073  0F17                     u3457:
  4074  0F17  0BD7               	decfsz	??_proceeding_text,f
  4075  0F18  2F17               	goto	u3457
  4076  0F19  0BD8               	decfsz	??_proceeding_text+1,f
  4077  0F1A  2F17               	goto	u3457
  4078  0F1B  0BD9               	decfsz	??_proceeding_text+2,f
  4079  0F1C  2F17               	goto	u3457
  4080  0F1D                     l2455:
  4081                           
  4082                           ;main.c: 462:         LCD_dat('.');
  4083  0F1D  302E               	movlw	46
  4084  0F1E  120A  158A  2250  120A  158A  	fcall	_LCD_dat
  4085  0F23                     l2457:
  4086                           
  4087                           ;main.c: 463:         _delay((unsigned long)((100)*(20000000/4000.0)));
  4088  0F23  3003               	movlw	3
  4089  0F24  1283               	bcf	3,5	;RP0=0, select bank0
  4090  0F25  1303               	bcf	3,6	;RP1=0, select bank0
  4091  0F26  00D9               	movwf	??_proceeding_text+2
  4092  0F27  308A               	movlw	138
  4093  0F28  00D8               	movwf	??_proceeding_text+1
  4094  0F29  3055               	movlw	85
  4095  0F2A  00D7               	movwf	??_proceeding_text
  4096  0F2B                     u3467:
  4097  0F2B  0BD7               	decfsz	??_proceeding_text,f
  4098  0F2C  2F2B               	goto	u3467
  4099  0F2D  0BD8               	decfsz	??_proceeding_text+1,f
  4100  0F2E  2F2B               	goto	u3467
  4101  0F2F  0BD9               	decfsz	??_proceeding_text+2,f
  4102  0F30  2F2B               	goto	u3467
  4103                           
  4104                           ;main.c: 464:         LCD_dat('.');
  4105  0F31  302E               	movlw	46
  4106  0F32  120A  158A  2250  120A  158A  	fcall	_LCD_dat
  4107  0F37                     l2459:
  4108                           
  4109                           ;main.c: 465:         _delay((unsigned long)((2000)*(20000000/4000.0)));
  4110  0F37  3033               	movlw	51
  4111  0F38  1283               	bcf	3,5	;RP0=0, select bank0
  4112  0F39  1303               	bcf	3,6	;RP1=0, select bank0
  4113  0F3A  00D9               	movwf	??_proceeding_text+2
  4114  0F3B  30BB               	movlw	187
  4115  0F3C  00D8               	movwf	??_proceeding_text+1
  4116  0F3D  30DF               	movlw	223
  4117  0F3E  00D7               	movwf	??_proceeding_text
  4118  0F3F                     u3477:
  4119  0F3F  0BD7               	decfsz	??_proceeding_text,f
  4120  0F40  2F3F               	goto	u3477
  4121  0F41  0BD8               	decfsz	??_proceeding_text+1,f
  4122  0F42  2F3F               	goto	u3477
  4123  0F43  0BD9               	decfsz	??_proceeding_text+2,f
  4124  0F44  2F3F               	goto	u3477
  4125  0F45                     l231:
  4126  0F45  0008               	return
  4127  0F46                     __end_of_proceeding_text:
  4128                           
  4129                           	psect	text14
  4130  011A                     __ptext14:	
  4131 ;; *************** function _lookuptable *****************
  4132 ;; Defined at:
  4133 ;;		line 233 in file "main.c"
  4134 ;; Parameters:    Size  Location     Type
  4135 ;;		None
  4136 ;; Auto vars:     Size  Location     Type
  4137 ;;  lut9            4   32[BANK0 ] struct lut
  4138 ;;  lut8            4   28[BANK0 ] struct lut
  4139 ;;  lut7            4   24[BANK0 ] struct lut
  4140 ;;  lut6            4   20[BANK0 ] struct lut
  4141 ;;  lut5            4   16[BANK0 ] struct lut
  4142 ;;  lut4            4   12[BANK0 ] struct lut
  4143 ;;  lut3            4    8[BANK0 ] struct lut
  4144 ;;  lut2            4    4[BANK0 ] struct lut
  4145 ;;  lut1            4    0[BANK0 ] struct lut
  4146 ;; Return value:  Size  Location     Type
  4147 ;;                  1    wreg      void 
  4148 ;; Registers used:
  4149 ;;		wreg, fsr0l, fsr0h, status,2, status,0, btemp+1, pclath, cstack
  4150 ;; Tracked objects:
  4151 ;;		On entry : 0/0
  4152 ;;		On exit  : 0/0
  4153 ;;		Unchanged: 0/0
  4154 ;; Data sizes:     COMMON   BANK0   BANK1   BANK3   BANK2
  4155 ;;      Params:         0       0       0       0       0
  4156 ;;      Locals:         0      36       0       0       0
  4157 ;;      Temps:          1       0       0       0       0
  4158 ;;      Totals:         1      36       0       0       0
  4159 ;;Total ram usage:       37 bytes
  4160 ;; Hardware stack levels used: 1
  4161 ;; Hardware stack levels required when called: 2
  4162 ;; This function calls:
  4163 ;;		_LCD_cmd
  4164 ;;		_show
  4165 ;; This function is called by:
  4166 ;;		_main
  4167 ;; This function uses a non-reentrant model
  4168 ;;
  4169                           
  4170                           
  4171                           ;psect for function _lookuptable
  4172  011A                     _lookuptable:
  4173  011A                     l2361:	
  4174                           ;incstack = 0
  4175                           ; Regs used in _lookuptable: [wreg-fsr0h+status,2+status,0+btemp+1+pclath+cstack]
  4176                           
  4177                           
  4178                           ;main.c: 236:     struct lut lut1 = {17, 10, 2.4, 1};
  4179  011A  1683               	bsf	3,5	;RP0=1, select bank1
  4180  011B  1303               	bcf	3,6	;RP1=0, select bank1
  4181  011C  0853               	movf	(lookuptable@F998+3)^(0+128),w
  4182  011D  1283               	bcf	3,5	;RP0=0, select bank0
  4183  011E  1303               	bcf	3,6	;RP1=0, select bank0
  4184  011F  00A3               	movwf	lookuptable@lut1+3
  4185  0120  1683               	bsf	3,5	;RP0=1, select bank1
  4186  0121  1303               	bcf	3,6	;RP1=0, select bank1
  4187  0122  0852               	movf	(lookuptable@F998+2)^(0+128),w
  4188  0123  1283               	bcf	3,5	;RP0=0, select bank0
  4189  0124  1303               	bcf	3,6	;RP1=0, select bank0
  4190  0125  00A2               	movwf	lookuptable@lut1+2
  4191  0126  1683               	bsf	3,5	;RP0=1, select bank1
  4192  0127  1303               	bcf	3,6	;RP1=0, select bank1
  4193  0128  0851               	movf	(lookuptable@F998+1)^(0+128),w
  4194  0129  1283               	bcf	3,5	;RP0=0, select bank0
  4195  012A  1303               	bcf	3,6	;RP1=0, select bank0
  4196  012B  00A1               	movwf	lookuptable@lut1+1
  4197  012C  1683               	bsf	3,5	;RP0=1, select bank1
  4198  012D  1303               	bcf	3,6	;RP1=0, select bank1
  4199  012E  0850               	movf	lookuptable@F998^(0+128),w
  4200  012F  1283               	bcf	3,5	;RP0=0, select bank0
  4201  0130  1303               	bcf	3,6	;RP1=0, select bank0
  4202  0131  00A0               	movwf	lookuptable@lut1
  4203                           
  4204                           ;main.c: 237:     struct lut lut2 = {17, 15, 2.0, 2};
  4205  0132  1683               	bsf	3,5	;RP0=1, select bank1
  4206  0133  1303               	bcf	3,6	;RP1=0, select bank1
  4207  0134  084F               	movf	(lookuptable@F1000+3)^(0+128),w
  4208  0135  1283               	bcf	3,5	;RP0=0, select bank0
  4209  0136  1303               	bcf	3,6	;RP1=0, select bank0
  4210  0137  00A7               	movwf	lookuptable@lut2+3
  4211  0138  1683               	bsf	3,5	;RP0=1, select bank1
  4212  0139  1303               	bcf	3,6	;RP1=0, select bank1
  4213  013A  084E               	movf	(lookuptable@F1000+2)^(0+128),w
  4214  013B  1283               	bcf	3,5	;RP0=0, select bank0
  4215  013C  1303               	bcf	3,6	;RP1=0, select bank0
  4216  013D  00A6               	movwf	lookuptable@lut2+2
  4217  013E  1683               	bsf	3,5	;RP0=1, select bank1
  4218  013F  1303               	bcf	3,6	;RP1=0, select bank1
  4219  0140  084D               	movf	(lookuptable@F1000+1)^(0+128),w
  4220  0141  1283               	bcf	3,5	;RP0=0, select bank0
  4221  0142  1303               	bcf	3,6	;RP1=0, select bank0
  4222  0143  00A5               	movwf	lookuptable@lut2+1
  4223  0144  1683               	bsf	3,5	;RP0=1, select bank1
  4224  0145  1303               	bcf	3,6	;RP1=0, select bank1
  4225  0146  084C               	movf	lookuptable@F1000^(0+128),w
  4226  0147  1283               	bcf	3,5	;RP0=0, select bank0
  4227  0148  1303               	bcf	3,6	;RP1=0, select bank0
  4228  0149  00A4               	movwf	lookuptable@lut2
  4229                           
  4230                           ;main.c: 238:     struct lut lut3 = {17, 20, 1.6, 3};
  4231  014A  1683               	bsf	3,5	;RP0=1, select bank1
  4232  014B  1303               	bcf	3,6	;RP1=0, select bank1
  4233  014C  084B               	movf	(lookuptable@F1002+3)^(0+128),w
  4234  014D  1283               	bcf	3,5	;RP0=0, select bank0
  4235  014E  1303               	bcf	3,6	;RP1=0, select bank0
  4236  014F  00AB               	movwf	lookuptable@lut3+3
  4237  0150  1683               	bsf	3,5	;RP0=1, select bank1
  4238  0151  1303               	bcf	3,6	;RP1=0, select bank1
  4239  0152  084A               	movf	(lookuptable@F1002+2)^(0+128),w
  4240  0153  1283               	bcf	3,5	;RP0=0, select bank0
  4241  0154  1303               	bcf	3,6	;RP1=0, select bank0
  4242  0155  00AA               	movwf	lookuptable@lut3+2
  4243  0156  1683               	bsf	3,5	;RP0=1, select bank1
  4244  0157  1303               	bcf	3,6	;RP1=0, select bank1
  4245  0158  0849               	movf	(lookuptable@F1002+1)^(0+128),w
  4246  0159  1283               	bcf	3,5	;RP0=0, select bank0
  4247  015A  1303               	bcf	3,6	;RP1=0, select bank0
  4248  015B  00A9               	movwf	lookuptable@lut3+1
  4249  015C  1683               	bsf	3,5	;RP0=1, select bank1
  4250  015D  1303               	bcf	3,6	;RP1=0, select bank1
  4251  015E  0848               	movf	lookuptable@F1002^(0+128),w
  4252  015F  1283               	bcf	3,5	;RP0=0, select bank0
  4253  0160  1303               	bcf	3,6	;RP1=0, select bank0
  4254  0161  00A8               	movwf	lookuptable@lut3
  4255                           
  4256                           ;main.c: 239:     struct lut lut4 = {23, 10, 4.5, 2};
  4257  0162  1683               	bsf	3,5	;RP0=1, select bank1
  4258  0163  1303               	bcf	3,6	;RP1=0, select bank1
  4259  0164  0847               	movf	(lookuptable@F1004+3)^(0+128),w
  4260  0165  1283               	bcf	3,5	;RP0=0, select bank0
  4261  0166  1303               	bcf	3,6	;RP1=0, select bank0
  4262  0167  00AF               	movwf	lookuptable@lut4+3
  4263  0168  1683               	bsf	3,5	;RP0=1, select bank1
  4264  0169  1303               	bcf	3,6	;RP1=0, select bank1
  4265  016A  0846               	movf	(lookuptable@F1004+2)^(0+128),w
  4266  016B  1283               	bcf	3,5	;RP0=0, select bank0
  4267  016C  1303               	bcf	3,6	;RP1=0, select bank0
  4268  016D  00AE               	movwf	lookuptable@lut4+2
  4269  016E  1683               	bsf	3,5	;RP0=1, select bank1
  4270  016F  1303               	bcf	3,6	;RP1=0, select bank1
  4271  0170  0845               	movf	(lookuptable@F1004+1)^(0+128),w
  4272  0171  1283               	bcf	3,5	;RP0=0, select bank0
  4273  0172  1303               	bcf	3,6	;RP1=0, select bank0
  4274  0173  00AD               	movwf	lookuptable@lut4+1
  4275  0174  1683               	bsf	3,5	;RP0=1, select bank1
  4276  0175  1303               	bcf	3,6	;RP1=0, select bank1
  4277  0176  0844               	movf	lookuptable@F1004^(0+128),w
  4278  0177  1283               	bcf	3,5	;RP0=0, select bank0
  4279  0178  1303               	bcf	3,6	;RP1=0, select bank0
  4280  0179  00AC               	movwf	lookuptable@lut4
  4281                           
  4282                           ;main.c: 240:     struct lut lut5 = {23, 15, 3.7, 3};
  4283  017A  1683               	bsf	3,5	;RP0=1, select bank1
  4284  017B  1303               	bcf	3,6	;RP1=0, select bank1
  4285  017C  0843               	movf	(lookuptable@F1006+3)^(0+128),w
  4286  017D  1283               	bcf	3,5	;RP0=0, select bank0
  4287  017E  1303               	bcf	3,6	;RP1=0, select bank0
  4288  017F  00B3               	movwf	lookuptable@lut5+3
  4289  0180  1683               	bsf	3,5	;RP0=1, select bank1
  4290  0181  1303               	bcf	3,6	;RP1=0, select bank1
  4291  0182  0842               	movf	(lookuptable@F1006+2)^(0+128),w
  4292  0183  1283               	bcf	3,5	;RP0=0, select bank0
  4293  0184  1303               	bcf	3,6	;RP1=0, select bank0
  4294  0185  00B2               	movwf	lookuptable@lut5+2
  4295  0186  1683               	bsf	3,5	;RP0=1, select bank1
  4296  0187  1303               	bcf	3,6	;RP1=0, select bank1
  4297  0188  0841               	movf	(lookuptable@F1006+1)^(0+128),w
  4298  0189  1283               	bcf	3,5	;RP0=0, select bank0
  4299  018A  1303               	bcf	3,6	;RP1=0, select bank0
  4300  018B  00B1               	movwf	lookuptable@lut5+1
  4301  018C  1683               	bsf	3,5	;RP0=1, select bank1
  4302  018D  1303               	bcf	3,6	;RP1=0, select bank1
  4303  018E  0840               	movf	lookuptable@F1006^(0+128),w
  4304  018F  1283               	bcf	3,5	;RP0=0, select bank0
  4305  0190  1303               	bcf	3,6	;RP1=0, select bank0
  4306  0191  00B0               	movwf	lookuptable@lut5
  4307                           
  4308                           ;main.c: 241:     struct lut lut6 = {23, 20, 3.0, 4};
  4309  0192  1683               	bsf	3,5	;RP0=1, select bank1
  4310  0193  1303               	bcf	3,6	;RP1=0, select bank1
  4311  0194  083F               	movf	(lookuptable@F1008+3)^(0+128),w
  4312  0195  1283               	bcf	3,5	;RP0=0, select bank0
  4313  0196  1303               	bcf	3,6	;RP1=0, select bank0
  4314  0197  00B7               	movwf	lookuptable@lut6+3
  4315  0198  1683               	bsf	3,5	;RP0=1, select bank1
  4316  0199  1303               	bcf	3,6	;RP1=0, select bank1
  4317  019A  083E               	movf	(lookuptable@F1008+2)^(0+128),w
  4318  019B  1283               	bcf	3,5	;RP0=0, select bank0
  4319  019C  1303               	bcf	3,6	;RP1=0, select bank0
  4320  019D  00B6               	movwf	lookuptable@lut6+2
  4321  019E  1683               	bsf	3,5	;RP0=1, select bank1
  4322  019F  1303               	bcf	3,6	;RP1=0, select bank1
  4323  01A0  083D               	movf	(lookuptable@F1008+1)^(0+128),w
  4324  01A1  1283               	bcf	3,5	;RP0=0, select bank0
  4325  01A2  1303               	bcf	3,6	;RP1=0, select bank0
  4326  01A3  00B5               	movwf	lookuptable@lut6+1
  4327  01A4  1683               	bsf	3,5	;RP0=1, select bank1
  4328  01A5  1303               	bcf	3,6	;RP1=0, select bank1
  4329  01A6  083C               	movf	lookuptable@F1008^(0+128),w
  4330  01A7  1283               	bcf	3,5	;RP0=0, select bank0
  4331  01A8  1303               	bcf	3,6	;RP1=0, select bank0
  4332  01A9  00B4               	movwf	lookuptable@lut6
  4333                           
  4334                           ;main.c: 242:     struct lut lut7 = {45, 10, 8.7, 5};
  4335  01AA  1683               	bsf	3,5	;RP0=1, select bank1
  4336  01AB  1303               	bcf	3,6	;RP1=0, select bank1
  4337  01AC  083B               	movf	(lookuptable@F1010+3)^(0+128),w
  4338  01AD  1283               	bcf	3,5	;RP0=0, select bank0
  4339  01AE  1303               	bcf	3,6	;RP1=0, select bank0
  4340  01AF  00BB               	movwf	lookuptable@lut7+3
  4341  01B0  1683               	bsf	3,5	;RP0=1, select bank1
  4342  01B1  1303               	bcf	3,6	;RP1=0, select bank1
  4343  01B2  083A               	movf	(lookuptable@F1010+2)^(0+128),w
  4344  01B3  1283               	bcf	3,5	;RP0=0, select bank0
  4345  01B4  1303               	bcf	3,6	;RP1=0, select bank0
  4346  01B5  00BA               	movwf	lookuptable@lut7+2
  4347  01B6  1683               	bsf	3,5	;RP0=1, select bank1
  4348  01B7  1303               	bcf	3,6	;RP1=0, select bank1
  4349  01B8  0839               	movf	(lookuptable@F1010+1)^(0+128),w
  4350  01B9  1283               	bcf	3,5	;RP0=0, select bank0
  4351  01BA  1303               	bcf	3,6	;RP1=0, select bank0
  4352  01BB  00B9               	movwf	lookuptable@lut7+1
  4353  01BC  1683               	bsf	3,5	;RP0=1, select bank1
  4354  01BD  1303               	bcf	3,6	;RP1=0, select bank1
  4355  01BE  0838               	movf	lookuptable@F1010^(0+128),w
  4356  01BF  1283               	bcf	3,5	;RP0=0, select bank0
  4357  01C0  1303               	bcf	3,6	;RP1=0, select bank0
  4358  01C1  00B8               	movwf	lookuptable@lut7
  4359                           
  4360                           ;main.c: 243:     struct lut lut8 = {45, 15, 7.2, 6};
  4361  01C2  1683               	bsf	3,5	;RP0=1, select bank1
  4362  01C3  1303               	bcf	3,6	;RP1=0, select bank1
  4363  01C4  0837               	movf	(lookuptable@F1012+3)^(0+128),w
  4364  01C5  1283               	bcf	3,5	;RP0=0, select bank0
  4365  01C6  1303               	bcf	3,6	;RP1=0, select bank0
  4366  01C7  00BF               	movwf	lookuptable@lut8+3
  4367  01C8  1683               	bsf	3,5	;RP0=1, select bank1
  4368  01C9  1303               	bcf	3,6	;RP1=0, select bank1
  4369  01CA  0836               	movf	(lookuptable@F1012+2)^(0+128),w
  4370  01CB  1283               	bcf	3,5	;RP0=0, select bank0
  4371  01CC  1303               	bcf	3,6	;RP1=0, select bank0
  4372  01CD  00BE               	movwf	lookuptable@lut8+2
  4373  01CE  1683               	bsf	3,5	;RP0=1, select bank1
  4374  01CF  1303               	bcf	3,6	;RP1=0, select bank1
  4375  01D0  0835               	movf	(lookuptable@F1012+1)^(0+128),w
  4376  01D1  1283               	bcf	3,5	;RP0=0, select bank0
  4377  01D2  1303               	bcf	3,6	;RP1=0, select bank0
  4378  01D3  00BD               	movwf	lookuptable@lut8+1
  4379  01D4  1683               	bsf	3,5	;RP0=1, select bank1
  4380  01D5  1303               	bcf	3,6	;RP1=0, select bank1
  4381  01D6  0834               	movf	lookuptable@F1012^(0+128),w
  4382  01D7  1283               	bcf	3,5	;RP0=0, select bank0
  4383  01D8  1303               	bcf	3,6	;RP1=0, select bank0
  4384  01D9  00BC               	movwf	lookuptable@lut8
  4385                           
  4386                           ;main.c: 244:     struct lut lut9 = {45, 20, 5.8, 7};
  4387  01DA  1683               	bsf	3,5	;RP0=1, select bank1
  4388  01DB  1303               	bcf	3,6	;RP1=0, select bank1
  4389  01DC  0833               	movf	(lookuptable@F1014+3)^(0+128),w
  4390  01DD  1283               	bcf	3,5	;RP0=0, select bank0
  4391  01DE  1303               	bcf	3,6	;RP1=0, select bank0
  4392  01DF  00C3               	movwf	lookuptable@lut9+3
  4393  01E0  1683               	bsf	3,5	;RP0=1, select bank1
  4394  01E1  1303               	bcf	3,6	;RP1=0, select bank1
  4395  01E2  0832               	movf	(lookuptable@F1014+2)^(0+128),w
  4396  01E3  1283               	bcf	3,5	;RP0=0, select bank0
  4397  01E4  1303               	bcf	3,6	;RP1=0, select bank0
  4398  01E5  00C2               	movwf	lookuptable@lut9+2
  4399  01E6  1683               	bsf	3,5	;RP0=1, select bank1
  4400  01E7  1303               	bcf	3,6	;RP1=0, select bank1
  4401  01E8  0831               	movf	(lookuptable@F1014+1)^(0+128),w
  4402  01E9  1283               	bcf	3,5	;RP0=0, select bank0
  4403  01EA  1303               	bcf	3,6	;RP1=0, select bank0
  4404  01EB  00C1               	movwf	lookuptable@lut9+1
  4405  01EC  1683               	bsf	3,5	;RP0=1, select bank1
  4406  01ED  1303               	bcf	3,6	;RP1=0, select bank1
  4407  01EE  0830               	movf	lookuptable@F1014^(0+128),w
  4408  01EF  1283               	bcf	3,5	;RP0=0, select bank0
  4409  01F0  1303               	bcf	3,6	;RP1=0, select bank0
  4410  01F1  00C0               	movwf	lookuptable@lut9
  4411  01F2                     l2363:
  4412                           
  4413                           ;main.c: 246:     if (b1 == 1)
  4414  01F2  036C               	decf	_b1,w
  4415  01F3  1D03               	btfss	3,2
  4416  01F4  29F6               	goto	u3291
  4417  01F5  29F7               	goto	u3290
  4418  01F6                     u3291:
  4419  01F6  2A10               	goto	l2375
  4420  01F7                     u3290:
  4421  01F7                     l2365:
  4422                           
  4423                           ;main.c: 247:     {;main.c: 248:         if (c1 == 1)
  4424  01F7  036A               	decf	_c1,w
  4425  01F8  1D03               	btfss	3,2
  4426  01F9  29FB               	goto	u3301
  4427  01FA  29FC               	goto	u3300
  4428  01FB                     u3301:
  4429  01FB  2A0B               	goto	l2373
  4430  01FC                     u3300:
  4431  01FC                     l2367:
  4432                           
  4433                           ;main.c: 249:             {;main.c: 250:                 if (c2 == 0)
  4434  01FC  0869               	movf	_c2,w
  4435  01FD  1D03               	btfss	3,2
  4436  01FE  2A00               	goto	u3311
  4437  01FF  2A01               	goto	u3310
  4438  0200                     u3311:
  4439  0200  2A06               	goto	l2371
  4440  0201                     u3310:
  4441  0201                     l2369:
  4442                           
  4443                           ;main.c: 251:                 {;main.c: 252:                     turn_time = lut1.t_t;
  4444  0201  0823               	movf	lookuptable@lut1+3,w
  4445  0202  00F5               	movwf	??_lookuptable
  4446  0203  0875               	movf	??_lookuptable,w
  4447  0204  00ED               	movwf	_turn_time
  4448                           
  4449                           ;main.c: 253:                 }
  4450  0205  2A63               	goto	l197
  4451  0206                     l2371:
  4452                           
  4453                           ;main.c: 255:                 {;main.c: 256:                     turn_time = lut2.t_t;
  4454  0206  0827               	movf	lookuptable@lut2+3,w
  4455  0207  00F5               	movwf	??_lookuptable
  4456  0208  0875               	movf	??_lookuptable,w
  4457  0209  00ED               	movwf	_turn_time
  4458  020A  2A63               	goto	l197
  4459  020B                     l2373:
  4460                           
  4461                           ;main.c: 260:             {;main.c: 261:                 turn_time = lut3.t_t;
  4462  020B  082B               	movf	lookuptable@lut3+3,w
  4463  020C  00F5               	movwf	??_lookuptable
  4464  020D  0875               	movf	??_lookuptable,w
  4465  020E  00ED               	movwf	_turn_time
  4466  020F  2A63               	goto	l197
  4467  0210                     l2375:
  4468  0210  3002               	movlw	2
  4469  0211  066C               	xorwf	_b1,w
  4470  0212  1D03               	btfss	3,2
  4471  0213  2A15               	goto	u3321
  4472  0214  2A16               	goto	u3320
  4473  0215                     u3321:
  4474  0215  2A2F               	goto	l2387
  4475  0216                     u3320:
  4476  0216                     l2377:
  4477                           
  4478                           ;main.c: 265:     {;main.c: 266:         if (c1 == 1)
  4479  0216  036A               	decf	_c1,w
  4480  0217  1D03               	btfss	3,2
  4481  0218  2A1A               	goto	u3331
  4482  0219  2A1B               	goto	u3330
  4483  021A                     u3331:
  4484  021A  2A2A               	goto	l2385
  4485  021B                     u3330:
  4486  021B                     l2379:
  4487                           
  4488                           ;main.c: 267:             {;main.c: 268:                 if (c2 == 0)
  4489  021B  0869               	movf	_c2,w
  4490  021C  1D03               	btfss	3,2
  4491  021D  2A1F               	goto	u3341
  4492  021E  2A20               	goto	u3340
  4493  021F                     u3341:
  4494  021F  2A25               	goto	l2383
  4495  0220                     u3340:
  4496  0220                     l2381:
  4497                           
  4498                           ;main.c: 269:                 {;main.c: 270:                     turn_time = lut4.t_t;
  4499  0220  082F               	movf	lookuptable@lut4+3,w
  4500  0221  00F5               	movwf	??_lookuptable
  4501  0222  0875               	movf	??_lookuptable,w
  4502  0223  00ED               	movwf	_turn_time
  4503                           
  4504                           ;main.c: 271:                 }
  4505  0224  2A63               	goto	l197
  4506  0225                     l2383:
  4507                           
  4508                           ;main.c: 273:                 {;main.c: 274:                     turn_time = lut5.t_t;
  4509  0225  0833               	movf	lookuptable@lut5+3,w
  4510  0226  00F5               	movwf	??_lookuptable
  4511  0227  0875               	movf	??_lookuptable,w
  4512  0228  00ED               	movwf	_turn_time
  4513  0229  2A63               	goto	l197
  4514  022A                     l2385:
  4515                           
  4516                           ;main.c: 278:             {;main.c: 279:                 turn_time = lut6.t_t;
  4517  022A  0837               	movf	lookuptable@lut6+3,w
  4518  022B  00F5               	movwf	??_lookuptable
  4519  022C  0875               	movf	??_lookuptable,w
  4520  022D  00ED               	movwf	_turn_time
  4521  022E  2A63               	goto	l197
  4522  022F                     l2387:
  4523  022F  3004               	movlw	4
  4524  0230  066C               	xorwf	_b1,w
  4525  0231  1D03               	btfss	3,2
  4526  0232  2A34               	goto	u3351
  4527  0233  2A35               	goto	u3350
  4528  0234                     u3351:
  4529  0234  2A4E               	goto	l2399
  4530  0235                     u3350:
  4531  0235                     l2389:
  4532                           
  4533                           ;main.c: 283:     {;main.c: 284:         if (c1 == 1)
  4534  0235  036A               	decf	_c1,w
  4535  0236  1D03               	btfss	3,2
  4536  0237  2A39               	goto	u3361
  4537  0238  2A3A               	goto	u3360
  4538  0239                     u3361:
  4539  0239  2A49               	goto	l2397
  4540  023A                     u3360:
  4541  023A                     l2391:
  4542                           
  4543                           ;main.c: 285:             {;main.c: 286:                 if (c2 == 0)
  4544  023A  0869               	movf	_c2,w
  4545  023B  1D03               	btfss	3,2
  4546  023C  2A3E               	goto	u3371
  4547  023D  2A3F               	goto	u3370
  4548  023E                     u3371:
  4549  023E  2A44               	goto	l2395
  4550  023F                     u3370:
  4551  023F                     l2393:
  4552                           
  4553                           ;main.c: 287:                 {;main.c: 288:                     turn_time = lut7.t_t;
  4554  023F  083B               	movf	lookuptable@lut7+3,w
  4555  0240  00F5               	movwf	??_lookuptable
  4556  0241  0875               	movf	??_lookuptable,w
  4557  0242  00ED               	movwf	_turn_time
  4558                           
  4559                           ;main.c: 289:                 }
  4560  0243  2A63               	goto	l197
  4561  0244                     l2395:
  4562                           
  4563                           ;main.c: 291:                 {;main.c: 292:                     turn_time = lut8.t_t;
  4564  0244  083F               	movf	lookuptable@lut8+3,w
  4565  0245  00F5               	movwf	??_lookuptable
  4566  0246  0875               	movf	??_lookuptable,w
  4567  0247  00ED               	movwf	_turn_time
  4568  0248  2A63               	goto	l197
  4569  0249                     l2397:
  4570                           
  4571                           ;main.c: 296:             {;main.c: 297:                 turn_time = lut9.t_t;
  4572  0249  0843               	movf	lookuptable@lut9+3,w
  4573  024A  00F5               	movwf	??_lookuptable
  4574  024B  0875               	movf	??_lookuptable,w
  4575  024C  00ED               	movwf	_turn_time
  4576  024D  2A63               	goto	l197
  4577  024E                     l2399:
  4578                           
  4579                           ;main.c: 301:     {;main.c: 302:         LCD_cmd(0x01);
  4580  024E  3001               	movlw	1
  4581  024F  120A  158A  2204  120A  118A  	fcall	_LCD_cmd
  4582                           
  4583                           ;main.c: 303:         LCD_cmd(0xC0);
  4584  0254  30C0               	movlw	192
  4585  0255  120A  158A  2204  120A  118A  	fcall	_LCD_cmd
  4586  025A                     l2401:
  4587                           
  4588                           ;main.c: 304:         show("Invalid Data Input!!");
  4589  025A  3017               	movlw	low (STR_4| (0+32768))
  4590  025B  00F3               	movwf	show@s
  4591  025C  3088               	movlw	high (STR_4| (0+32768))
  4592  025D  00F4               	movwf	show@s+1
  4593  025E  120A  118A  2006  120A  118A  	fcall	_show
  4594  0263                     l197:
  4595  0263  0008               	return
  4596  0264                     __end_of_lookuptable:
  4597                           
  4598                           	psect	text15
  4599  170A                     __ptext15:	
  4600 ;; *************** function _keyinit *****************
  4601 ;; Defined at:
  4602 ;;		line 143 in file "main.c"
  4603 ;; Parameters:    Size  Location     Type
  4604 ;;		None
  4605 ;; Auto vars:     Size  Location     Type
  4606 ;;		None
  4607 ;; Return value:  Size  Location     Type
  4608 ;;                  1    wreg      void 
  4609 ;; Registers used:
  4610 ;;		wreg, status,2
  4611 ;; Tracked objects:
  4612 ;;		On entry : 0/0
  4613 ;;		On exit  : 0/0
  4614 ;;		Unchanged: 0/0
  4615 ;; Data sizes:     COMMON   BANK0   BANK1   BANK3   BANK2
  4616 ;;      Params:         0       0       0       0       0
  4617 ;;      Locals:         0       0       0       0       0
  4618 ;;      Temps:          0       0       0       0       0
  4619 ;;      Totals:         0       0       0       0       0
  4620 ;;Total ram usage:        0 bytes
  4621 ;; Hardware stack levels used: 1
  4622 ;; This function calls:
  4623 ;;		Nothing
  4624 ;; This function is called by:
  4625 ;;		_main
  4626 ;; This function uses a non-reentrant model
  4627 ;;
  4628                           
  4629                           
  4630                           ;psect for function _keyinit
  4631  170A                     _keyinit:
  4632  170A                     l2315:	
  4633                           ;incstack = 0
  4634                           ; Regs used in _keyinit: [wreg+status,2]
  4635                           
  4636                           
  4637                           ;main.c: 145:     TRISD=0XF0;
  4638  170A  30F0               	movlw	240
  4639  170B  1683               	bsf	3,5	;RP0=1, select bank1
  4640  170C  1303               	bcf	3,6	;RP1=0, select bank1
  4641  170D  0088               	movwf	8	;volatile
  4642  170E                     l2317:
  4643                           
  4644                           ;main.c: 146:     PORTD=0X00;
  4645  170E  1283               	bcf	3,5	;RP0=0, select bank0
  4646  170F  1303               	bcf	3,6	;RP1=0, select bank0
  4647  1710  0188               	clrf	8	;volatile
  4648  1711                     l122:
  4649  1711  0008               	return
  4650  1712                     __end_of_keyinit:
  4651                           
  4652                           	psect	text16
  4653  002C                     __ptext16:	
  4654 ;; *************** function _fetch_sizes *****************
  4655 ;; Defined at:
  4656 ;;		line 203 in file "main.c"
  4657 ;; Parameters:    Size  Location     Type
  4658 ;;		None
  4659 ;; Auto vars:     Size  Location     Type
  4660 ;;		None
  4661 ;; Return value:  Size  Location     Type
  4662 ;;                  1    wreg      void 
  4663 ;; Registers used:
  4664 ;;		wreg, fsr0l, fsr0h, status,2, status,0, btemp+1, pclath, cstack
  4665 ;; Tracked objects:
  4666 ;;		On entry : 0/0
  4667 ;;		On exit  : 0/0
  4668 ;;		Unchanged: 0/0
  4669 ;; Data sizes:     COMMON   BANK0   BANK1   BANK3   BANK2
  4670 ;;      Params:         0       0       0       0       0
  4671 ;;      Locals:         0       0       0       0       0
  4672 ;;      Temps:          0       3       0       0       0
  4673 ;;      Totals:         0       3       0       0       0
  4674 ;;Total ram usage:        3 bytes
  4675 ;; Hardware stack levels used: 1
  4676 ;; Hardware stack levels required when called: 2
  4677 ;; This function calls:
  4678 ;;		_LCD_cmd
  4679 ;;		_LCD_num
  4680 ;;		_key
  4681 ;;		_show
  4682 ;; This function is called by:
  4683 ;;		_main
  4684 ;; This function uses a non-reentrant model
  4685 ;;
  4686                           
  4687                           
  4688                           ;psect for function _fetch_sizes
  4689  002C                     _fetch_sizes:
  4690  002C                     l2319:	
  4691                           ;incstack = 0
  4692                           ; Regs used in _fetch_sizes: [wreg-fsr0h+status,2+status,0+btemp+1+pclath+cstack]
  4693                           
  4694                           
  4695                           ;main.c: 205:     LCD_cmd(0x01);
  4696  002C  3001               	movlw	1
  4697  002D  120A  158A  2204  120A  118A  	fcall	_LCD_cmd
  4698                           
  4699                           ;main.c: 206:     LCD_cmd(0x80);
  4700  0032  3080               	movlw	128
  4701  0033  120A  158A  2204  120A  118A  	fcall	_LCD_cmd
  4702  0038                     l2321:
  4703                           
  4704                           ;main.c: 207:     show("Enter the Bobbin Size:");
  4705  0038  3000               	movlw	low (STR_1| (0+32768))
  4706  0039  00F3               	movwf	show@s
  4707  003A  3088               	movlw	high (STR_1| (0+32768))
  4708  003B  00F4               	movwf	show@s+1
  4709  003C  120A  118A  2006  120A  118A  	fcall	_show
  4710  0041                     l2323:
  4711                           
  4712                           ;main.c: 208:         b1=key();
  4713  0041  120A  118A  2264  120A  118A  	fcall	_key
  4714  0046  1283               	bcf	3,5	;RP0=0, select bank0
  4715  0047  1303               	bcf	3,6	;RP1=0, select bank0
  4716  0048  00D6               	movwf	??_fetch_sizes
  4717  0049  0856               	movf	??_fetch_sizes,w
  4718  004A  00EC               	movwf	_b1
  4719  004B                     l2325:
  4720                           
  4721                           ;main.c: 209:         LCD_num(b1);
  4722  004B  086C               	movf	_b1,w
  4723  004C  00D6               	movwf	??_fetch_sizes
  4724  004D  01D7               	clrf	??_fetch_sizes+1
  4725  004E  0856               	movf	??_fetch_sizes,w
  4726  004F  00C6               	movwf	LCD_num@val
  4727  0050  0857               	movf	??_fetch_sizes+1,w
  4728  0051  00C7               	movwf	LCD_num@val+1
  4729  0052  120A  118A  23B0  120A  118A  	fcall	_LCD_num
  4730  0057                     l2327:
  4731                           
  4732                           ;main.c: 210:         b2=key();
  4733  0057  120A  118A  2264  120A  118A  	fcall	_key
  4734  005C  1283               	bcf	3,5	;RP0=0, select bank0
  4735  005D  1303               	bcf	3,6	;RP1=0, select bank0
  4736  005E  00D6               	movwf	??_fetch_sizes
  4737  005F  0856               	movf	??_fetch_sizes,w
  4738  0060  00EB               	movwf	_b2
  4739  0061                     l2329:
  4740                           
  4741                           ;main.c: 211:         LCD_num(b2);
  4742  0061  086B               	movf	_b2,w
  4743  0062  00D6               	movwf	??_fetch_sizes
  4744  0063  01D7               	clrf	??_fetch_sizes+1
  4745  0064  0856               	movf	??_fetch_sizes,w
  4746  0065  00C6               	movwf	LCD_num@val
  4747  0066  0857               	movf	??_fetch_sizes+1,w
  4748  0067  00C7               	movwf	LCD_num@val+1
  4749  0068  120A  118A  23B0  120A  118A  	fcall	_LCD_num
  4750  006D                     l2331:
  4751                           
  4752                           ;main.c: 212:     _delay((unsigned long)((100)*(20000000/4000.0)));
  4753  006D  3003               	movlw	3
  4754  006E  1283               	bcf	3,5	;RP0=0, select bank0
  4755  006F  1303               	bcf	3,6	;RP1=0, select bank0
  4756  0070  00D8               	movwf	??_fetch_sizes+2
  4757  0071  308A               	movlw	138
  4758  0072  00D7               	movwf	??_fetch_sizes+1
  4759  0073  3055               	movlw	85
  4760  0074  00D6               	movwf	??_fetch_sizes
  4761  0075                     u3487:
  4762  0075  0BD6               	decfsz	??_fetch_sizes,f
  4763  0076  2875               	goto	u3487
  4764  0077  0BD7               	decfsz	??_fetch_sizes+1,f
  4765  0078  2875               	goto	u3487
  4766  0079  0BD8               	decfsz	??_fetch_sizes+2,f
  4767  007A  2875               	goto	u3487
  4768  007B                     l2333:
  4769                           
  4770                           ;main.c: 214:     LCD_cmd(0x01);
  4771  007B  3001               	movlw	1
  4772  007C  120A  158A  2204  120A  118A  	fcall	_LCD_cmd
  4773  0081                     l2335:
  4774                           
  4775                           ;main.c: 215:     LCD_cmd(0x80);
  4776  0081  3080               	movlw	128
  4777  0082  120A  158A  2204  120A  118A  	fcall	_LCD_cmd
  4778  0087                     l2337:
  4779                           
  4780                           ;main.c: 216:     show("Enter the Coil Size:");
  4781  0087  302C               	movlw	low (STR_2| (0+32768))
  4782  0088  00F3               	movwf	show@s
  4783  0089  3088               	movlw	high (STR_2| (0+32768))
  4784  008A  00F4               	movwf	show@s+1
  4785  008B  120A  118A  2006  120A  118A  	fcall	_show
  4786  0090                     l2339:
  4787                           
  4788                           ;main.c: 217:         c1=key();
  4789  0090  120A  118A  2264  120A  118A  	fcall	_key
  4790  0095  1283               	bcf	3,5	;RP0=0, select bank0
  4791  0096  1303               	bcf	3,6	;RP1=0, select bank0
  4792  0097  00D6               	movwf	??_fetch_sizes
  4793  0098  0856               	movf	??_fetch_sizes,w
  4794  0099  00EA               	movwf	_c1
  4795  009A                     l2341:
  4796                           
  4797                           ;main.c: 218:         LCD_num(c1);
  4798  009A  086A               	movf	_c1,w
  4799  009B  00D6               	movwf	??_fetch_sizes
  4800  009C  01D7               	clrf	??_fetch_sizes+1
  4801  009D  0856               	movf	??_fetch_sizes,w
  4802  009E  00C6               	movwf	LCD_num@val
  4803  009F  0857               	movf	??_fetch_sizes+1,w
  4804  00A0  00C7               	movwf	LCD_num@val+1
  4805  00A1  120A  118A  23B0  120A  118A  	fcall	_LCD_num
  4806  00A6                     l2343:
  4807                           
  4808                           ;main.c: 219:         c2=key();
  4809  00A6  120A  118A  2264  120A  118A  	fcall	_key
  4810  00AB  1283               	bcf	3,5	;RP0=0, select bank0
  4811  00AC  1303               	bcf	3,6	;RP1=0, select bank0
  4812  00AD  00D6               	movwf	??_fetch_sizes
  4813  00AE  0856               	movf	??_fetch_sizes,w
  4814  00AF  00E9               	movwf	_c2
  4815  00B0                     l2345:
  4816                           
  4817                           ;main.c: 220:         LCD_num(c2);
  4818  00B0  0869               	movf	_c2,w
  4819  00B1  00D6               	movwf	??_fetch_sizes
  4820  00B2  01D7               	clrf	??_fetch_sizes+1
  4821  00B3  0856               	movf	??_fetch_sizes,w
  4822  00B4  00C6               	movwf	LCD_num@val
  4823  00B5  0857               	movf	??_fetch_sizes+1,w
  4824  00B6  00C7               	movwf	LCD_num@val+1
  4825  00B7  120A  118A  23B0  120A  118A  	fcall	_LCD_num
  4826  00BC                     l2347:
  4827                           
  4828                           ;main.c: 221:     _delay((unsigned long)((100)*(20000000/4000.0)));
  4829  00BC  3003               	movlw	3
  4830  00BD  1283               	bcf	3,5	;RP0=0, select bank0
  4831  00BE  1303               	bcf	3,6	;RP1=0, select bank0
  4832  00BF  00D8               	movwf	??_fetch_sizes+2
  4833  00C0  308A               	movlw	138
  4834  00C1  00D7               	movwf	??_fetch_sizes+1
  4835  00C2  3055               	movlw	85
  4836  00C3  00D6               	movwf	??_fetch_sizes
  4837  00C4                     u3497:
  4838  00C4  0BD6               	decfsz	??_fetch_sizes,f
  4839  00C5  28C4               	goto	u3497
  4840  00C6  0BD7               	decfsz	??_fetch_sizes+1,f
  4841  00C7  28C4               	goto	u3497
  4842  00C8  0BD8               	decfsz	??_fetch_sizes+2,f
  4843  00C9  28C4               	goto	u3497
  4844                           
  4845                           ;main.c: 223:     LCD_cmd(0x01);
  4846  00CA  3001               	movlw	1
  4847  00CB  120A  158A  2204  120A  118A  	fcall	_LCD_cmd
  4848                           
  4849                           ;main.c: 224:     LCD_cmd(0x80);
  4850  00D0  3080               	movlw	128
  4851  00D1  120A  158A  2204  120A  118A  	fcall	_LCD_cmd
  4852  00D6                     l2349:
  4853                           
  4854                           ;main.c: 225:     show("Enter the No. Turns:");
  4855  00D6  3041               	movlw	low (STR_3| (0+32768))
  4856  00D7  00F3               	movwf	show@s
  4857  00D8  3088               	movlw	high (STR_3| (0+32768))
  4858  00D9  00F4               	movwf	show@s+1
  4859  00DA  120A  118A  2006  120A  118A  	fcall	_show
  4860  00DF                     l2351:
  4861                           
  4862                           ;main.c: 226:         n1=key();
  4863  00DF  120A  118A  2264  120A  118A  	fcall	_key
  4864  00E4  1283               	bcf	3,5	;RP0=0, select bank0
  4865  00E5  1303               	bcf	3,6	;RP1=0, select bank0
  4866  00E6  00D6               	movwf	??_fetch_sizes
  4867  00E7  0856               	movf	??_fetch_sizes,w
  4868  00E8  00E8               	movwf	_n1
  4869  00E9                     l2353:
  4870                           
  4871                           ;main.c: 227:         LCD_num(n1);
  4872  00E9  0868               	movf	_n1,w
  4873  00EA  00D6               	movwf	??_fetch_sizes
  4874  00EB  01D7               	clrf	??_fetch_sizes+1
  4875  00EC  0856               	movf	??_fetch_sizes,w
  4876  00ED  00C6               	movwf	LCD_num@val
  4877  00EE  0857               	movf	??_fetch_sizes+1,w
  4878  00EF  00C7               	movwf	LCD_num@val+1
  4879  00F0  120A  118A  23B0  120A  118A  	fcall	_LCD_num
  4880  00F5                     l2355:
  4881                           
  4882                           ;main.c: 228:         n2=key();
  4883  00F5  120A  118A  2264  120A  118A  	fcall	_key
  4884  00FA  1283               	bcf	3,5	;RP0=0, select bank0
  4885  00FB  1303               	bcf	3,6	;RP1=0, select bank0
  4886  00FC  00D6               	movwf	??_fetch_sizes
  4887  00FD  0856               	movf	??_fetch_sizes,w
  4888  00FE  00E7               	movwf	_n2
  4889  00FF                     l2357:
  4890                           
  4891                           ;main.c: 229:         LCD_num(n2);
  4892  00FF  0867               	movf	_n2,w
  4893  0100  00D6               	movwf	??_fetch_sizes
  4894  0101  01D7               	clrf	??_fetch_sizes+1
  4895  0102  0856               	movf	??_fetch_sizes,w
  4896  0103  00C6               	movwf	LCD_num@val
  4897  0104  0857               	movf	??_fetch_sizes+1,w
  4898  0105  00C7               	movwf	LCD_num@val+1
  4899  0106  120A  118A  23B0  120A  118A  	fcall	_LCD_num
  4900  010B                     l2359:
  4901                           
  4902                           ;main.c: 230:     _delay((unsigned long)((100)*(20000000/4000.0)));
  4903  010B  3003               	movlw	3
  4904  010C  1283               	bcf	3,5	;RP0=0, select bank0
  4905  010D  1303               	bcf	3,6	;RP1=0, select bank0
  4906  010E  00D8               	movwf	??_fetch_sizes+2
  4907  010F  308A               	movlw	138
  4908  0110  00D7               	movwf	??_fetch_sizes+1
  4909  0111  3055               	movlw	85
  4910  0112  00D6               	movwf	??_fetch_sizes
  4911  0113                     u3507:
  4912  0113  0BD6               	decfsz	??_fetch_sizes,f
  4913  0114  2913               	goto	u3507
  4914  0115  0BD7               	decfsz	??_fetch_sizes+1,f
  4915  0116  2913               	goto	u3507
  4916  0117  0BD8               	decfsz	??_fetch_sizes+2,f
  4917  0118  2913               	goto	u3507
  4918  0119                     l158:
  4919  0119  0008               	return
  4920  011A                     __end_of_fetch_sizes:
  4921                           
  4922                           	psect	text17
  4923  0264                     __ptext17:	
  4924 ;; *************** function _key *****************
  4925 ;; Defined at:
  4926 ;;		line 149 in file "main.c"
  4927 ;; Parameters:    Size  Location     Type
  4928 ;;		None
  4929 ;; Auto vars:     Size  Location     Type
  4930 ;;		None
  4931 ;; Return value:  Size  Location     Type
  4932 ;;                  1    wreg      unsigned char 
  4933 ;; Registers used:
  4934 ;;		wreg, fsr0l, fsr0h, status,2, status,0
  4935 ;; Tracked objects:
  4936 ;;		On entry : 0/0
  4937 ;;		On exit  : 0/0
  4938 ;;		Unchanged: 0/0
  4939 ;; Data sizes:     COMMON   BANK0   BANK1   BANK3   BANK2
  4940 ;;      Params:         0       0       0       0       0
  4941 ;;      Locals:         0       0       0       0       0
  4942 ;;      Temps:          3       0       0       0       0
  4943 ;;      Totals:         3       0       0       0       0
  4944 ;;Total ram usage:        3 bytes
  4945 ;; Hardware stack levels used: 1
  4946 ;; This function calls:
  4947 ;;		Nothing
  4948 ;; This function is called by:
  4949 ;;		_fetch_sizes
  4950 ;; This function uses a non-reentrant model
  4951 ;;
  4952                           
  4953                           
  4954                           ;psect for function _key
  4955  0264                     _key:
  4956  0264                     l2125:	
  4957                           ;incstack = 0
  4958                           ; Regs used in _key: [wreg-fsr0h+status,2+status,0]
  4959                           
  4960                           
  4961                           ;main.c: 151:     PORTD=0X00;
  4962  0264  1283               	bcf	3,5	;RP0=0, select bank0
  4963  0265  1303               	bcf	3,6	;RP1=0, select bank0
  4964  0266  0188               	clrf	8	;volatile
  4965  0267                     l125:	
  4966                           ;main.c: 152:     while(RD4&&RD5&&RD6&&RD7);
  4967                           
  4968  0267  1E08               	btfss	8,4	;volatile
  4969  0268  2A6A               	goto	u2631
  4970  0269  2A6B               	goto	u2630
  4971  026A                     u2631:
  4972  026A  2B2E               	goto	l130
  4973  026B                     u2630:
  4974  026B                     l2127:
  4975  026B  1E88               	btfss	8,5	;volatile
  4976  026C  2A6E               	goto	u2641
  4977  026D  2A6F               	goto	u2640
  4978  026E                     u2641:
  4979  026E  2B2E               	goto	l130
  4980  026F                     u2640:
  4981  026F                     l2129:
  4982  026F  1F08               	btfss	8,6	;volatile
  4983  0270  2A72               	goto	u2651
  4984  0271  2A73               	goto	u2650
  4985  0272                     u2651:
  4986  0272  2B2E               	goto	l130
  4987  0273                     u2650:
  4988  0273                     l2131:
  4989  0273  1B88               	btfsc	8,7	;volatile
  4990  0274  2A76               	goto	u2661
  4991  0275  2A77               	goto	u2660
  4992  0276                     u2661:
  4993  0276  2A67               	goto	l125
  4994  0277                     u2660:
  4995  0277  2B2E               	goto	l130
  4996  0278                     l2133:
  4997                           
  4998                           ;main.c: 155:             {;main.c: 156:             _delay((unsigned long)((100)*(20000
      +                          000/4000.0)));
  4999  0278  3003               	movlw	3
  5000  0279  00F2               	movwf	??_key+2
  5001  027A  308A               	movlw	138
  5002  027B  00F1               	movwf	??_key+1
  5003  027C  3055               	movlw	85
  5004  027D  00F0               	movwf	??_key
  5005  027E                     u3517:
  5006  027E  0BF0               	decfsz	??_key,f
  5007  027F  2A7E               	goto	u3517
  5008  0280  0BF1               	decfsz	??_key+1,f
  5009  0281  2A7E               	goto	u3517
  5010  0282  0BF2               	decfsz	??_key+2,f
  5011  0283  2A7E               	goto	u3517
  5012  0284  2A85               	nop2
  5013  0285                     l2135:
  5014                           
  5015                           ;main.c: 158:             RD0=0;
  5016  0285  1283               	bcf	3,5	;RP0=0, select bank0
  5017  0286  1303               	bcf	3,6	;RP1=0, select bank0
  5018  0287  1008               	bcf	8,0	;volatile
  5019  0288                     l2137:
  5020                           
  5021                           ;main.c: 159:             RD1=RD2=RD3=1;
  5022  0288  1588               	bsf	8,3	;volatile
  5023  0289  1988               	btfsc	8,3	;volatile
  5024  028A  2A8C               	goto	u2671
  5025  028B  2A90               	goto	u2670
  5026  028C                     u2671:
  5027  028C  1283               	bcf	3,5	;RP0=0, select bank0
  5028  028D  1303               	bcf	3,6	;RP1=0, select bank0
  5029  028E  1508               	bsf	8,2	;volatile
  5030  028F  2A93               	goto	u2684
  5031  0290                     u2670:
  5032  0290  1283               	bcf	3,5	;RP0=0, select bank0
  5033  0291  1303               	bcf	3,6	;RP1=0, select bank0
  5034  0292  1108               	bcf	8,2	;volatile
  5035  0293                     u2684:
  5036  0293  1908               	btfsc	8,2	;volatile
  5037  0294  2A96               	goto	u2681
  5038  0295  2A9A               	goto	u2680
  5039  0296                     u2681:
  5040  0296  1283               	bcf	3,5	;RP0=0, select bank0
  5041  0297  1303               	bcf	3,6	;RP1=0, select bank0
  5042  0298  1488               	bsf	8,1	;volatile
  5043  0299  2A9D               	goto	u2694
  5044  029A                     u2680:
  5045  029A  1283               	bcf	3,5	;RP0=0, select bank0
  5046  029B  1303               	bcf	3,6	;RP1=0, select bank0
  5047  029C  1088               	bcf	8,1	;volatile
  5048  029D                     u2694:
  5049  029D                     l2139:
  5050                           
  5051                           ;main.c: 160:             if(!RD4||!RD5||!RD6||!RD7)
  5052  029D  1E08               	btfss	8,4	;volatile
  5053  029E  2AA0               	goto	u2701
  5054  029F  2AA1               	goto	u2700
  5055  02A0                     u2701:
  5056  02A0  2AAD               	goto	l2147
  5057  02A1                     u2700:
  5058  02A1                     l2141:
  5059  02A1  1E88               	btfss	8,5	;volatile
  5060  02A2  2AA4               	goto	u2711
  5061  02A3  2AA5               	goto	u2710
  5062  02A4                     u2711:
  5063  02A4  2AAD               	goto	l2147
  5064  02A5                     u2710:
  5065  02A5                     l2143:
  5066  02A5  1F08               	btfss	8,6	;volatile
  5067  02A6  2AA8               	goto	u2721
  5068  02A7  2AA9               	goto	u2720
  5069  02A8                     u2721:
  5070  02A8  2AAD               	goto	l2147
  5071  02A9                     u2720:
  5072  02A9                     l2145:
  5073  02A9  1B88               	btfsc	8,7	;volatile
  5074  02AA  2AAC               	goto	u2731
  5075  02AB  2AAD               	goto	u2730
  5076  02AC                     u2731:
  5077  02AC  2AAF               	goto	l132
  5078  02AD                     u2730:
  5079  02AD                     l2147:
  5080                           
  5081                           ;main.c: 161:                 {;main.c: 162:                     rowloc=0;
  5082  02AD  01EF               	clrf	_rowloc
  5083                           
  5084                           ;main.c: 163:                     break;
  5085  02AE  2B3E               	goto	l135
  5086  02AF                     l132:	
  5087                           ;main.c: 164:                 }
  5088                           
  5089                           
  5090                           ;main.c: 165:             RD1=0;
  5091  02AF  1088               	bcf	8,1	;volatile
  5092                           
  5093                           ;main.c: 166:             RD0=RD2=RD3=1;
  5094  02B0  1588               	bsf	8,3	;volatile
  5095  02B1  1988               	btfsc	8,3	;volatile
  5096  02B2  2AB4               	goto	u2741
  5097  02B3  2AB8               	goto	u2740
  5098  02B4                     u2741:
  5099  02B4  1283               	bcf	3,5	;RP0=0, select bank0
  5100  02B5  1303               	bcf	3,6	;RP1=0, select bank0
  5101  02B6  1508               	bsf	8,2	;volatile
  5102  02B7  2ABB               	goto	u2754
  5103  02B8                     u2740:
  5104  02B8  1283               	bcf	3,5	;RP0=0, select bank0
  5105  02B9  1303               	bcf	3,6	;RP1=0, select bank0
  5106  02BA  1108               	bcf	8,2	;volatile
  5107  02BB                     u2754:
  5108  02BB  1908               	btfsc	8,2	;volatile
  5109  02BC  2ABE               	goto	u2751
  5110  02BD  2AC2               	goto	u2750
  5111  02BE                     u2751:
  5112  02BE  1283               	bcf	3,5	;RP0=0, select bank0
  5113  02BF  1303               	bcf	3,6	;RP1=0, select bank0
  5114  02C0  1408               	bsf	8,0	;volatile
  5115  02C1  2AC5               	goto	u2764
  5116  02C2                     u2750:
  5117  02C2  1283               	bcf	3,5	;RP0=0, select bank0
  5118  02C3  1303               	bcf	3,6	;RP1=0, select bank0
  5119  02C4  1008               	bcf	8,0	;volatile
  5120  02C5                     u2764:
  5121                           
  5122                           ;main.c: 167:             if(!RD4||!RD5||!RD6||!RD7)
  5123  02C5  1E08               	btfss	8,4	;volatile
  5124  02C6  2AC8               	goto	u2771
  5125  02C7  2AC9               	goto	u2770
  5126  02C8                     u2771:
  5127  02C8  2AD5               	goto	l138
  5128  02C9                     u2770:
  5129  02C9                     l2149:
  5130  02C9  1E88               	btfss	8,5	;volatile
  5131  02CA  2ACC               	goto	u2781
  5132  02CB  2ACD               	goto	u2780
  5133  02CC                     u2781:
  5134  02CC  2AD5               	goto	l138
  5135  02CD                     u2780:
  5136  02CD                     l2151:
  5137  02CD  1F08               	btfss	8,6	;volatile
  5138  02CE  2AD0               	goto	u2791
  5139  02CF  2AD1               	goto	u2790
  5140  02D0                     u2791:
  5141  02D0  2AD5               	goto	l138
  5142  02D1                     u2790:
  5143  02D1                     l2153:
  5144  02D1  1B88               	btfsc	8,7	;volatile
  5145  02D2  2AD4               	goto	u2801
  5146  02D3  2AD5               	goto	u2800
  5147  02D4                     u2801:
  5148  02D4  2AD8               	goto	l136
  5149  02D5                     u2800:
  5150  02D5                     l138:
  5151                           
  5152                           ;main.c: 168:                 {;main.c: 169:                     rowloc=1;
  5153  02D5  01EF               	clrf	_rowloc
  5154  02D6  0AEF               	incf	_rowloc,f
  5155                           
  5156                           ;main.c: 170:                     break;
  5157  02D7  2B3E               	goto	l135
  5158  02D8                     l136:	
  5159                           ;main.c: 171:                 }
  5160                           
  5161                           
  5162                           ;main.c: 172:             RD2=0;
  5163  02D8  1108               	bcf	8,2	;volatile
  5164                           
  5165                           ;main.c: 173:             RD1=RD0=RD3=1;
  5166  02D9  1588               	bsf	8,3	;volatile
  5167  02DA  1988               	btfsc	8,3	;volatile
  5168  02DB  2ADD               	goto	u2811
  5169  02DC  2AE1               	goto	u2810
  5170  02DD                     u2811:
  5171  02DD  1283               	bcf	3,5	;RP0=0, select bank0
  5172  02DE  1303               	bcf	3,6	;RP1=0, select bank0
  5173  02DF  1408               	bsf	8,0	;volatile
  5174  02E0  2AE4               	goto	u2824
  5175  02E1                     u2810:
  5176  02E1  1283               	bcf	3,5	;RP0=0, select bank0
  5177  02E2  1303               	bcf	3,6	;RP1=0, select bank0
  5178  02E3  1008               	bcf	8,0	;volatile
  5179  02E4                     u2824:
  5180  02E4  1808               	btfsc	8,0	;volatile
  5181  02E5  2AE7               	goto	u2821
  5182  02E6  2AEB               	goto	u2820
  5183  02E7                     u2821:
  5184  02E7  1283               	bcf	3,5	;RP0=0, select bank0
  5185  02E8  1303               	bcf	3,6	;RP1=0, select bank0
  5186  02E9  1488               	bsf	8,1	;volatile
  5187  02EA  2AEE               	goto	u2834
  5188  02EB                     u2820:
  5189  02EB  1283               	bcf	3,5	;RP0=0, select bank0
  5190  02EC  1303               	bcf	3,6	;RP1=0, select bank0
  5191  02ED  1088               	bcf	8,1	;volatile
  5192  02EE                     u2834:
  5193                           
  5194                           ;main.c: 174:             if(!RD4||!RD5||!RD6||!RD7)
  5195  02EE  1E08               	btfss	8,4	;volatile
  5196  02EF  2AF1               	goto	u2841
  5197  02F0  2AF2               	goto	u2840
  5198  02F1                     u2841:
  5199  02F1  2AFE               	goto	l2161
  5200  02F2                     u2840:
  5201  02F2                     l2155:
  5202  02F2  1E88               	btfss	8,5	;volatile
  5203  02F3  2AF5               	goto	u2851
  5204  02F4  2AF6               	goto	u2850
  5205  02F5                     u2851:
  5206  02F5  2AFE               	goto	l2161
  5207  02F6                     u2850:
  5208  02F6                     l2157:
  5209  02F6  1F08               	btfss	8,6	;volatile
  5210  02F7  2AF9               	goto	u2861
  5211  02F8  2AFA               	goto	u2860
  5212  02F9                     u2861:
  5213  02F9  2AFE               	goto	l2161
  5214  02FA                     u2860:
  5215  02FA                     l2159:
  5216  02FA  1B88               	btfsc	8,7	;volatile
  5217  02FB  2AFD               	goto	u2871
  5218  02FC  2AFE               	goto	u2870
  5219  02FD                     u2871:
  5220  02FD  2B03               	goto	l139
  5221  02FE                     u2870:
  5222  02FE                     l2161:
  5223                           
  5224                           ;main.c: 175:                 {;main.c: 176:                     rowloc=2;
  5225  02FE  3002               	movlw	2
  5226  02FF  00F0               	movwf	??_key
  5227  0300  0870               	movf	??_key,w
  5228  0301  00EF               	movwf	_rowloc
  5229                           
  5230                           ;main.c: 177:                     break;
  5231  0302  2B3E               	goto	l135
  5232  0303                     l139:	
  5233                           ;main.c: 178:                 }
  5234                           
  5235                           
  5236                           ;main.c: 179:             RD3=0;
  5237  0303  1188               	bcf	8,3	;volatile
  5238                           
  5239                           ;main.c: 180:             RD1=RD2=RD0=1;
  5240  0304  1408               	bsf	8,0	;volatile
  5241  0305  1808               	btfsc	8,0	;volatile
  5242  0306  2B08               	goto	u2881
  5243  0307  2B0C               	goto	u2880
  5244  0308                     u2881:
  5245  0308  1283               	bcf	3,5	;RP0=0, select bank0
  5246  0309  1303               	bcf	3,6	;RP1=0, select bank0
  5247  030A  1508               	bsf	8,2	;volatile
  5248  030B  2B0F               	goto	u2894
  5249  030C                     u2880:
  5250  030C  1283               	bcf	3,5	;RP0=0, select bank0
  5251  030D  1303               	bcf	3,6	;RP1=0, select bank0
  5252  030E  1108               	bcf	8,2	;volatile
  5253  030F                     u2894:
  5254  030F  1908               	btfsc	8,2	;volatile
  5255  0310  2B12               	goto	u2891
  5256  0311  2B16               	goto	u2890
  5257  0312                     u2891:
  5258  0312  1283               	bcf	3,5	;RP0=0, select bank0
  5259  0313  1303               	bcf	3,6	;RP1=0, select bank0
  5260  0314  1488               	bsf	8,1	;volatile
  5261  0315  2B19               	goto	u2904
  5262  0316                     u2890:
  5263  0316  1283               	bcf	3,5	;RP0=0, select bank0
  5264  0317  1303               	bcf	3,6	;RP1=0, select bank0
  5265  0318  1088               	bcf	8,1	;volatile
  5266  0319                     u2904:
  5267                           
  5268                           ;main.c: 181:             if(!RD4||!RD5||!RD6||!RD7)
  5269  0319  1E08               	btfss	8,4	;volatile
  5270  031A  2B1C               	goto	u2911
  5271  031B  2B1D               	goto	u2910
  5272  031C                     u2911:
  5273  031C  2B29               	goto	l2169
  5274  031D                     u2910:
  5275  031D                     l2163:
  5276  031D  1E88               	btfss	8,5	;volatile
  5277  031E  2B20               	goto	u2921
  5278  031F  2B21               	goto	u2920
  5279  0320                     u2921:
  5280  0320  2B29               	goto	l2169
  5281  0321                     u2920:
  5282  0321                     l2165:
  5283  0321  1F08               	btfss	8,6	;volatile
  5284  0322  2B24               	goto	u2931
  5285  0323  2B25               	goto	u2930
  5286  0324                     u2931:
  5287  0324  2B29               	goto	l2169
  5288  0325                     u2930:
  5289  0325                     l2167:
  5290  0325  1B88               	btfsc	8,7	;volatile
  5291  0326  2B28               	goto	u2941
  5292  0327  2B29               	goto	u2940
  5293  0328                     u2941:
  5294  0328  2B2E               	goto	l130
  5295  0329                     u2940:
  5296  0329                     l2169:
  5297                           
  5298                           ;main.c: 182:                 {;main.c: 183:                     rowloc=3;
  5299  0329  3003               	movlw	3
  5300  032A  00F0               	movwf	??_key
  5301  032B  0870               	movf	??_key,w
  5302  032C  00EF               	movwf	_rowloc
  5303                           
  5304                           ;main.c: 184:                     break;
  5305  032D  2B3E               	goto	l135
  5306  032E                     l130:	
  5307                           ;main.c: 187:             }
  5308                           
  5309                           
  5310                           ;main.c: 154:         while(!RD4||!RD5||!RD6||!RD7)
  5311  032E  1E08               	btfss	8,4	;volatile
  5312  032F  2B31               	goto	u2951
  5313  0330  2B32               	goto	u2950
  5314  0331                     u2951:
  5315  0331  2A78               	goto	l2133
  5316  0332                     u2950:
  5317  0332                     l2171:
  5318  0332  1E88               	btfss	8,5	;volatile
  5319  0333  2B35               	goto	u2961
  5320  0334  2B36               	goto	u2960
  5321  0335                     u2961:
  5322  0335  2A78               	goto	l2133
  5323  0336                     u2960:
  5324  0336                     l2173:
  5325  0336  1F08               	btfss	8,6	;volatile
  5326  0337  2B39               	goto	u2971
  5327  0338  2B3A               	goto	u2970
  5328  0339                     u2971:
  5329  0339  2A78               	goto	l2133
  5330  033A                     u2970:
  5331  033A                     l2175:
  5332  033A  1F88               	btfss	8,7	;volatile
  5333  033B  2B3D               	goto	u2981
  5334  033C  2B3E               	goto	u2980
  5335  033D                     u2981:
  5336  033D  2A78               	goto	l2133
  5337  033E                     u2980:
  5338  033E                     l135:
  5339                           
  5340                           ;main.c: 188:        };main.c: 190:     if(RD4==0&&RD5!=0&&RD6!=0&&RD7!=0)
  5341  033E  1A08               	btfsc	8,4	;volatile
  5342  033F  2B41               	goto	u2991
  5343  0340  2B42               	goto	u2990
  5344  0341                     u2991:
  5345  0341  2B50               	goto	l145
  5346  0342                     u2990:
  5347  0342                     l2177:
  5348  0342  1E88               	btfss	8,5	;volatile
  5349  0343  2B45               	goto	u3001
  5350  0344  2B46               	goto	u3000
  5351  0345                     u3001:
  5352  0345  2B50               	goto	l145
  5353  0346                     u3000:
  5354  0346                     l2179:
  5355  0346  1F08               	btfss	8,6	;volatile
  5356  0347  2B49               	goto	u3011
  5357  0348  2B4A               	goto	u3010
  5358  0349                     u3011:
  5359  0349  2B50               	goto	l145
  5360  034A                     u3010:
  5361  034A                     l2181:
  5362  034A  1F88               	btfss	8,7	;volatile
  5363  034B  2B4D               	goto	u3021
  5364  034C  2B4E               	goto	u3020
  5365  034D                     u3021:
  5366  034D  2B50               	goto	l145
  5367  034E                     u3020:
  5368  034E                     l2183:
  5369                           
  5370                           ;main.c: 191:     colloc=0;
  5371  034E  01EE               	clrf	_colloc
  5372  034F  2B8D               	goto	l152
  5373  0350                     l145:	
  5374                           ;main.c: 192:     else if(RD4!=0&&RD5==0&&RD6!=0&&RD7!=0)
  5375                           
  5376  0350  1E08               	btfss	8,4	;volatile
  5377  0351  2B53               	goto	u3031
  5378  0352  2B54               	goto	u3030
  5379  0353                     u3031:
  5380  0353  2B63               	goto	l147
  5381  0354                     u3030:
  5382  0354                     l2185:
  5383  0354  1A88               	btfsc	8,5	;volatile
  5384  0355  2B57               	goto	u3041
  5385  0356  2B58               	goto	u3040
  5386  0357                     u3041:
  5387  0357  2B63               	goto	l147
  5388  0358                     u3040:
  5389  0358                     l2187:
  5390  0358  1F08               	btfss	8,6	;volatile
  5391  0359  2B5B               	goto	u3051
  5392  035A  2B5C               	goto	u3050
  5393  035B                     u3051:
  5394  035B  2B63               	goto	l147
  5395  035C                     u3050:
  5396  035C                     l2189:
  5397  035C  1F88               	btfss	8,7	;volatile
  5398  035D  2B5F               	goto	u3061
  5399  035E  2B60               	goto	u3060
  5400  035F                     u3061:
  5401  035F  2B63               	goto	l147
  5402  0360                     u3060:
  5403  0360                     l2191:
  5404                           
  5405                           ;main.c: 193:     colloc=1;
  5406  0360  01EE               	clrf	_colloc
  5407  0361  0AEE               	incf	_colloc,f
  5408  0362  2B8D               	goto	l152
  5409  0363                     l147:	
  5410                           ;main.c: 194:     else if(RD4!=0&&RD5!=0&&RD6==0&&RD7!=0)
  5411                           
  5412  0363  1E08               	btfss	8,4	;volatile
  5413  0364  2B66               	goto	u3071
  5414  0365  2B67               	goto	u3070
  5415  0366                     u3071:
  5416  0366  2B78               	goto	l149
  5417  0367                     u3070:
  5418  0367                     l2193:
  5419  0367  1E88               	btfss	8,5	;volatile
  5420  0368  2B6A               	goto	u3081
  5421  0369  2B6B               	goto	u3080
  5422  036A                     u3081:
  5423  036A  2B78               	goto	l149
  5424  036B                     u3080:
  5425  036B                     l2195:
  5426  036B  1B08               	btfsc	8,6	;volatile
  5427  036C  2B6E               	goto	u3091
  5428  036D  2B6F               	goto	u3090
  5429  036E                     u3091:
  5430  036E  2B78               	goto	l149
  5431  036F                     u3090:
  5432  036F                     l2197:
  5433  036F  1F88               	btfss	8,7	;volatile
  5434  0370  2B72               	goto	u3101
  5435  0371  2B73               	goto	u3100
  5436  0372                     u3101:
  5437  0372  2B78               	goto	l149
  5438  0373                     u3100:
  5439  0373                     l2199:
  5440                           
  5441                           ;main.c: 195:     colloc=2;
  5442  0373  3002               	movlw	2
  5443  0374  00F0               	movwf	??_key
  5444  0375  0870               	movf	??_key,w
  5445  0376  00EE               	movwf	_colloc
  5446  0377  2B8D               	goto	l152
  5447  0378                     l149:	
  5448                           ;main.c: 196:     else if(RD4!=0&&RD5!=0&&RD6!=0&&RD7==0)
  5449                           
  5450  0378  1E08               	btfss	8,4	;volatile
  5451  0379  2B7B               	goto	u3111
  5452  037A  2B7C               	goto	u3110
  5453  037B                     u3111:
  5454  037B  2B8D               	goto	l148
  5455  037C                     u3110:
  5456  037C                     l2201:
  5457  037C  1E88               	btfss	8,5	;volatile
  5458  037D  2B7F               	goto	u3121
  5459  037E  2B80               	goto	u3120
  5460  037F                     u3121:
  5461  037F  2B8D               	goto	l148
  5462  0380                     u3120:
  5463  0380                     l2203:
  5464  0380  1F08               	btfss	8,6	;volatile
  5465  0381  2B83               	goto	u3131
  5466  0382  2B84               	goto	u3130
  5467  0383                     u3131:
  5468  0383  2B8D               	goto	l148
  5469  0384                     u3130:
  5470  0384                     l2205:
  5471  0384  1B88               	btfsc	8,7	;volatile
  5472  0385  2B87               	goto	u3141
  5473  0386  2B88               	goto	u3140
  5474  0387                     u3141:
  5475  0387  2B8D               	goto	l148
  5476  0388                     u3140:
  5477  0388                     l2207:
  5478                           
  5479                           ;main.c: 197:     colloc=3;
  5480  0388  3003               	movlw	3
  5481  0389  00F0               	movwf	??_key
  5482  038A  0870               	movf	??_key,w
  5483  038B  00EE               	movwf	_colloc
  5484  038C  2B8D               	goto	l152
  5485  038D                     l148:
  5486  038D                     l152:
  5487  038D  1E08               	btfss	8,4	;volatile
  5488  038E  2B90               	goto	u3151
  5489  038F  2B91               	goto	u3150
  5490  0390                     u3151:
  5491  0390  2B8D               	goto	l152
  5492  0391                     u3150:
  5493  0391                     l2209:
  5494  0391  1E88               	btfss	8,5	;volatile
  5495  0392  2B94               	goto	u3161
  5496  0393  2B95               	goto	u3160
  5497  0394                     u3161:
  5498  0394  2B8D               	goto	l152
  5499  0395                     u3160:
  5500  0395                     l2211:
  5501  0395  1F08               	btfss	8,6	;volatile
  5502  0396  2B98               	goto	u3171
  5503  0397  2B99               	goto	u3170
  5504  0398                     u3171:
  5505  0398  2B8D               	goto	l152
  5506  0399                     u3170:
  5507  0399                     l2213:
  5508  0399  1F88               	btfss	8,7	;volatile
  5509  039A  2B9C               	goto	u3181
  5510  039B  2B9D               	goto	u3180
  5511  039C                     u3181:
  5512  039C  2B8D               	goto	l152
  5513  039D                     u3180:
  5514  039D                     l2215:
  5515                           
  5516                           ;main.c: 200:     return (keypad[rowloc][colloc]);
  5517  039D  086F               	movf	_rowloc,w
  5518  039E  00F0               	movwf	??_key
  5519  039F  3002               	movlw	2
  5520  03A0                     u3195:
  5521  03A0  1003               	clrc
  5522  03A1  0DF0               	rlf	??_key,f
  5523  03A2  3EFF               	addlw	-1
  5524  03A3  1D03               	skipz
  5525  03A4  2BA0               	goto	u3195
  5526  03A5  30A0               	movlw	(low (_keypad| 0))& (0+255)
  5527  03A6  0770               	addwf	??_key,w
  5528  03A7  00F1               	movwf	??_key+1
  5529  03A8  086E               	movf	_colloc,w
  5530  03A9  0771               	addwf	??_key+1,w
  5531  03AA  00F2               	movwf	??_key+2
  5532  03AB  0872               	movf	??_key+2,w
  5533  03AC  0084               	movwf	4
  5534  03AD  1383               	bcf	3,7	;select IRP bank1
  5535  03AE  0800               	movf	0,w
  5536  03AF                     l155:
  5537  03AF  0008               	return
  5538  03B0                     __end_of_key:
  5539                           
  5540                           	psect	text18
  5541  0DF7                     __ptext18:	
  5542 ;; *************** function _display_data *****************
  5543 ;; Defined at:
  5544 ;;		line 309 in file "main.c"
  5545 ;; Parameters:    Size  Location     Type
  5546 ;;  a               1    wreg     unsigned char 
  5547 ;; Auto vars:     Size  Location     Type
  5548 ;;  a               1   57[BANK0 ] unsigned char 
  5549 ;; Return value:  Size  Location     Type
  5550 ;;                  1    wreg      void 
  5551 ;; Registers used:
  5552 ;;		wreg, fsr0l, fsr0h, status,2, status,0, btemp+1, pclath, cstack
  5553 ;; Tracked objects:
  5554 ;;		On entry : 0/0
  5555 ;;		On exit  : 0/0
  5556 ;;		Unchanged: 0/0
  5557 ;; Data sizes:     COMMON   BANK0   BANK1   BANK3   BANK2
  5558 ;;      Params:         0       0       0       0       0
  5559 ;;      Locals:         0       1       0       0       0
  5560 ;;      Temps:          0       3       0       0       0
  5561 ;;      Totals:         0       4       0       0       0
  5562 ;;Total ram usage:        4 bytes
  5563 ;; Hardware stack levels used: 1
  5564 ;; Hardware stack levels required when called: 2
  5565 ;; This function calls:
  5566 ;;		_LCD_cmd
  5567 ;;		_LCD_num
  5568 ;;		_show
  5569 ;; This function is called by:
  5570 ;;		_main
  5571 ;; This function uses a non-reentrant model
  5572 ;;
  5573                           
  5574                           
  5575                           ;psect for function _display_data
  5576  0DF7                     _display_data:
  5577                           
  5578                           ;incstack = 0
  5579                           ; Regs used in _display_data: [wreg-fsr0h+status,2+status,0+btemp+1+pclath+cstack]
  5580                           ;display_data@a stored from wreg
  5581  0DF7  1283               	bcf	3,5	;RP0=0, select bank0
  5582  0DF8  1303               	bcf	3,6	;RP1=0, select bank0
  5583  0DF9  00D9               	movwf	display_data@a
  5584  0DFA                     l2411:
  5585                           
  5586                           ;main.c: 309: void display_data(unsigned char a);main.c: 310: {;main.c: 311:         LCD
      +                          _cmd(0x01);
  5587  0DFA  3001               	movlw	1
  5588  0DFB  120A  158A  2204  120A  158A  	fcall	_LCD_cmd
  5589                           
  5590                           ;main.c: 312:         LCD_cmd(0x80);
  5591  0E00  3080               	movlw	128
  5592  0E01  120A  158A  2204  120A  158A  	fcall	_LCD_cmd
  5593  0E06                     l2413:
  5594                           
  5595                           ;main.c: 313:         show("Entered Data: ");
  5596  0E06  30D8               	movlw	low (STR_5| (0+32768))
  5597  0E07  00F3               	movwf	show@s
  5598  0E08  3088               	movlw	high (STR_5| (0+32768))
  5599  0E09  00F4               	movwf	show@s+1
  5600  0E0A  120A  118A  2006  120A  158A  	fcall	_show
  5601  0E0F                     l2415:
  5602                           
  5603                           ;main.c: 315:         LCD_cmd(0xC0);
  5604  0E0F  30C0               	movlw	192
  5605  0E10  120A  158A  2204  120A  158A  	fcall	_LCD_cmd
  5606                           
  5607                           ;main.c: 316:         show("Bobbin Size: ");
  5608  0E15  30F6               	movlw	low (STR_6| (0+32768))
  5609  0E16  00F3               	movwf	show@s
  5610  0E17  3088               	movlw	high (STR_6| (0+32768))
  5611  0E18  00F4               	movwf	show@s+1
  5612  0E19  120A  118A  2006  120A  158A  	fcall	_show
  5613  0E1E                     l2417:
  5614                           
  5615                           ;main.c: 317:         LCD_cmd(0xCC);
  5616  0E1E  30CC               	movlw	204
  5617  0E1F  120A  158A  2204  120A  158A  	fcall	_LCD_cmd
  5618  0E24                     l2419:
  5619                           
  5620                           ;main.c: 318:         LCD_num(bs);
  5621  0E24  1683               	bsf	3,5	;RP0=1, select bank1
  5622  0E25  1303               	bcf	3,6	;RP1=0, select bank1
  5623  0E26  0857               	movf	_bs^(0+128),w
  5624  0E27  1283               	bcf	3,5	;RP0=0, select bank0
  5625  0E28  1303               	bcf	3,6	;RP1=0, select bank0
  5626  0E29  00D6               	movwf	??_display_data
  5627  0E2A  01D7               	clrf	??_display_data+1
  5628  0E2B  0856               	movf	??_display_data,w
  5629  0E2C  00C6               	movwf	LCD_num@val
  5630  0E2D  0857               	movf	??_display_data+1,w
  5631  0E2E  00C7               	movwf	LCD_num@val+1
  5632  0E2F  120A  118A  23B0  120A  158A  	fcall	_LCD_num
  5633  0E34                     l2421:
  5634                           
  5635                           ;main.c: 321:         LCD_cmd(0x94);
  5636  0E34  3094               	movlw	148
  5637  0E35  120A  158A  2204  120A  158A  	fcall	_LCD_cmd
  5638  0E3A                     l2423:
  5639                           
  5640                           ;main.c: 322:         show("Coil Size: ");
  5641  0E3A  3011               	movlw	low (STR_7| (0+32768))
  5642  0E3B  00F3               	movwf	show@s
  5643  0E3C  3089               	movlw	high (STR_7| (0+32768))
  5644  0E3D  00F4               	movwf	show@s+1
  5645  0E3E  120A  118A  2006  120A  158A  	fcall	_show
  5646                           
  5647                           ;main.c: 323:         LCD_cmd(0xA0);
  5648  0E43  30A0               	movlw	160
  5649  0E44  120A  158A  2204  120A  158A  	fcall	_LCD_cmd
  5650                           
  5651                           ;main.c: 324:         LCD_num(cs);
  5652  0E49  1683               	bsf	3,5	;RP0=1, select bank1
  5653  0E4A  1303               	bcf	3,6	;RP1=0, select bank1
  5654  0E4B  0856               	movf	_cs^(0+128),w
  5655  0E4C  1283               	bcf	3,5	;RP0=0, select bank0
  5656  0E4D  1303               	bcf	3,6	;RP1=0, select bank0
  5657  0E4E  00D6               	movwf	??_display_data
  5658  0E4F  01D7               	clrf	??_display_data+1
  5659  0E50  0856               	movf	??_display_data,w
  5660  0E51  00C6               	movwf	LCD_num@val
  5661  0E52  0857               	movf	??_display_data+1,w
  5662  0E53  00C7               	movwf	LCD_num@val+1
  5663  0E54  120A  118A  23B0  120A  158A  	fcall	_LCD_num
  5664                           
  5665                           ;main.c: 326:         LCD_cmd(0xD4);
  5666  0E59  30D4               	movlw	212
  5667  0E5A  120A  158A  2204  120A  158A  	fcall	_LCD_cmd
  5668  0E5F                     l2425:
  5669                           
  5670                           ;main.c: 327:         show("Total No. Turns: ");
  5671  0E5F  3092               	movlw	low (STR_8| (0+32768))
  5672  0E60  00F3               	movwf	show@s
  5673  0E61  3088               	movlw	high (STR_8| (0+32768))
  5674  0E62  00F4               	movwf	show@s+1
  5675  0E63  120A  118A  2006  120A  158A  	fcall	_show
  5676  0E68                     l2427:
  5677                           
  5678                           ;main.c: 328:         LCD_cmd(0xE4);
  5679  0E68  30E4               	movlw	228
  5680  0E69  120A  158A  2204  120A  158A  	fcall	_LCD_cmd
  5681  0E6E                     l2429:
  5682                           
  5683                           ;main.c: 329:         LCD_num(a);
  5684  0E6E  1283               	bcf	3,5	;RP0=0, select bank0
  5685  0E6F  1303               	bcf	3,6	;RP1=0, select bank0
  5686  0E70  0859               	movf	display_data@a,w
  5687  0E71  00D6               	movwf	??_display_data
  5688  0E72  01D7               	clrf	??_display_data+1
  5689  0E73  0856               	movf	??_display_data,w
  5690  0E74  00C6               	movwf	LCD_num@val
  5691  0E75  0857               	movf	??_display_data+1,w
  5692  0E76  00C7               	movwf	LCD_num@val+1
  5693  0E77  120A  118A  23B0  120A  158A  	fcall	_LCD_num
  5694  0E7C                     l2431:
  5695                           
  5696                           ;main.c: 331:         _delay((unsigned long)((1000)*(20000000/4000.0)));
  5697  0E7C  301A               	movlw	26
  5698  0E7D  1283               	bcf	3,5	;RP0=0, select bank0
  5699  0E7E  1303               	bcf	3,6	;RP1=0, select bank0
  5700  0E7F  00D8               	movwf	??_display_data+2
  5701  0E80  305E               	movlw	94
  5702  0E81  00D7               	movwf	??_display_data+1
  5703  0E82  306D               	movlw	109
  5704  0E83  00D6               	movwf	??_display_data
  5705  0E84                     u3527:
  5706  0E84  0BD6               	decfsz	??_display_data,f
  5707  0E85  2E84               	goto	u3527
  5708  0E86  0BD7               	decfsz	??_display_data+1,f
  5709  0E87  2E84               	goto	u3527
  5710  0E88  0BD8               	decfsz	??_display_data+2,f
  5711  0E89  2E84               	goto	u3527
  5712  0E8A  2E8B               	nop2
  5713  0E8B                     l200:
  5714  0E8B  0008               	return
  5715  0E8C                     __end_of_display_data:
  5716                           
  5717                           	psect	text19
  5718  0006                     __ptext19:	
  5719 ;; *************** function _show *****************
  5720 ;; Defined at:
  5721 ;;		line 135 in file "main.c"
  5722 ;; Parameters:    Size  Location     Type
  5723 ;;  s               2    3[COMMON] PTR unsigned char 
  5724 ;;		 -> STR_21(11), STR_20(13), STR_19(12), STR_18(12), 
  5725 ;;		 -> STR_17(20), STR_16(20), STR_15(20), STR_14(10), 
  5726 ;;		 -> STR_13(18), STR_12(18), STR_11(8), STR_10(16), 
  5727 ;;		 -> STR_9(15), STR_8(18), STR_7(12), STR_6(14), 
  5728 ;;		 -> STR_5(15), STR_4(21), STR_3(21), STR_2(21), 
  5729 ;;		 -> STR_1(23), 
  5730 ;; Auto vars:     Size  Location     Type
  5731 ;;		None
  5732 ;; Return value:  Size  Location     Type
  5733 ;;                  1    wreg      void 
  5734 ;; Registers used:
  5735 ;;		wreg, fsr0l, fsr0h, status,2, status,0, btemp+1, pclath, cstack
  5736 ;; Tracked objects:
  5737 ;;		On entry : 0/0
  5738 ;;		On exit  : 0/0
  5739 ;;		Unchanged: 0/0
  5740 ;; Data sizes:     COMMON   BANK0   BANK1   BANK3   BANK2
  5741 ;;      Params:         2       0       0       0       0
  5742 ;;      Locals:         0       0       0       0       0
  5743 ;;      Temps:          0       0       0       0       0
  5744 ;;      Totals:         2       0       0       0       0
  5745 ;;Total ram usage:        2 bytes
  5746 ;; Hardware stack levels used: 1
  5747 ;; Hardware stack levels required when called: 1
  5748 ;; This function calls:
  5749 ;;		_LCD_dat
  5750 ;; This function is called by:
  5751 ;;		_fetch_sizes
  5752 ;;		_lookuptable
  5753 ;;		_display_data
  5754 ;;		_rotation
  5755 ;;		_result_display
  5756 ;;		_welcome_text
  5757 ;;		_proceeding_text
  5758 ;; This function uses a non-reentrant model
  5759 ;;
  5760                           
  5761                           
  5762                           ;psect for function _show
  5763  0006                     _show:
  5764  0006                     l2117:	
  5765                           ;incstack = 0
  5766                           ; Regs used in _show: [wreg-fsr0h+status,2+status,0+btemp+1+pclath+cstack]
  5767                           
  5768                           
  5769                           ;main.c: 135: void show(unsigned char *s);main.c: 136: {;main.c: 137:  while(*s)
  5770  0006  281B               	goto	l2123
  5771  0007                     l2119:
  5772                           
  5773                           ;main.c: 138:     {;main.c: 139:         LCD_dat(*s++);
  5774  0007  0874               	movf	show@s+1,w
  5775  0008  00FF               	movwf	btemp+1
  5776  0009  0873               	movf	show@s,w
  5777  000A  0084               	movwf	4
  5778  000B  160A  118A  2000  120A  118A  	fcall	stringtab
  5779  0010  120A  158A  2250  120A  118A  	fcall	_LCD_dat
  5780  0015                     l2121:
  5781  0015  3001               	movlw	1
  5782  0016  07F3               	addwf	show@s,f
  5783  0017  1803               	skipnc
  5784  0018  0AF4               	incf	show@s+1,f
  5785  0019  3000               	movlw	0
  5786  001A  07F4               	addwf	show@s+1,f
  5787  001B                     l2123:
  5788                           
  5789                           ;main.c: 137:  while(*s)
  5790  001B  0874               	movf	show@s+1,w
  5791  001C  1283               	bcf	3,5	;RP0=0, select bank0
  5792  001D  1303               	bcf	3,6	;RP1=0, select bank0
  5793  001E  00FF               	movwf	btemp+1
  5794  001F  0873               	movf	show@s,w
  5795  0020  0084               	movwf	4
  5796  0021  160A  118A  2000  120A  118A  	fcall	stringtab
  5797  0026  3A00               	xorlw	0
  5798  0027  1D03               	skipz
  5799  0028  282A               	goto	u2621
  5800  0029  282B               	goto	u2620
  5801  002A                     u2621:
  5802  002A  2807               	goto	l2119
  5803  002B                     u2620:
  5804  002B                     l119:
  5805  002B  0008               	return
  5806  002C                     __end_of_show:
  5807                           
  5808                           	psect	text20
  5809  03B0                     __ptext20:	
  5810 ;; *************** function _LCD_num *****************
  5811 ;; Defined at:
  5812 ;;		line 388 in file "main.c"
  5813 ;; Parameters:    Size  Location     Type
  5814 ;;  val             2   38[BANK0 ] unsigned int 
  5815 ;; Auto vars:     Size  Location     Type
  5816 ;;  remainder       2   52[BANK0 ] unsigned int 
  5817 ;;  result1         2   50[BANK0 ] unsigned int 
  5818 ;;  digit2          2   48[BANK0 ] unsigned int 
  5819 ;;  digit1          2   46[BANK0 ] unsigned int 
  5820 ;;  digit3          2   44[BANK0 ] unsigned int 
  5821 ;;  result          2   42[BANK0 ] unsigned int 
  5822 ;;  digit4          2   40[BANK0 ] unsigned int 
  5823 ;; Return value:  Size  Location     Type
  5824 ;;                  1    wreg      void 
  5825 ;; Registers used:
  5826 ;;		wreg, status,2, status,0, pclath, cstack
  5827 ;; Tracked objects:
  5828 ;;		On entry : 0/0
  5829 ;;		On exit  : 0/0
  5830 ;;		Unchanged: 0/0
  5831 ;; Data sizes:     COMMON   BANK0   BANK1   BANK3   BANK2
  5832 ;;      Params:         0       2       0       0       0
  5833 ;;      Locals:         0      14       0       0       0
  5834 ;;      Temps:          0       0       0       0       0
  5835 ;;      Totals:         0      16       0       0       0
  5836 ;;Total ram usage:       16 bytes
  5837 ;; Hardware stack levels used: 1
  5838 ;; Hardware stack levels required when called: 1
  5839 ;; This function calls:
  5840 ;;		_LCD_dat
  5841 ;;		___lwdiv
  5842 ;;		___lwmod
  5843 ;; This function is called by:
  5844 ;;		_fetch_sizes
  5845 ;;		_display_data
  5846 ;;		_rotation
  5847 ;;		_result_display
  5848 ;;		_proceeding_text
  5849 ;; This function uses a non-reentrant model
  5850 ;;
  5851                           
  5852                           
  5853                           ;psect for function _LCD_num
  5854  03B0                     _LCD_num:
  5855  03B0                     l2219:	
  5856                           ;incstack = 0
  5857                           ; Regs used in _LCD_num: [wreg+status,2+status,0+pclath+cstack]
  5858                           
  5859                           
  5860                           ;main.c: 388: void LCD_num (unsigned int val);main.c: 389: {;main.c: 390:     unsigned i
      +                          nt remainder, digit1, digit2, digit3, digit4, result, result1;;main.c: 391:     if (val<
      +                          =9)
  5861  03B0  3000               	movlw	0
  5862  03B1  1283               	bcf	3,5	;RP0=0, select bank0
  5863  03B2  1303               	bcf	3,6	;RP1=0, select bank0
  5864  03B3  0247               	subwf	LCD_num@val+1,w
  5865  03B4  300A               	movlw	10
  5866  03B5  1903               	skipnz
  5867  03B6  0246               	subwf	LCD_num@val,w
  5868  03B7  1803               	skipnc
  5869  03B8  2BBA               	goto	u3201
  5870  03B9  2BBB               	goto	u3200
  5871  03BA                     u3201:
  5872  03BA  2BC3               	goto	l2223
  5873  03BB                     u3200:
  5874  03BB                     l2221:
  5875                           
  5876                           ;main.c: 392:     {;main.c: 393:         LCD_dat (val+0x30);
  5877  03BB  0846               	movf	LCD_num@val,w
  5878  03BC  3E30               	addlw	48
  5879  03BD  120A  158A  2250  120A  118A  	fcall	_LCD_dat
  5880                           
  5881                           ;main.c: 394:     }
  5882  03C2  2D43               	goto	l225
  5883  03C3                     l2223:
  5884  03C3  3000               	movlw	0
  5885  03C4  0247               	subwf	LCD_num@val+1,w
  5886  03C5  300A               	movlw	10
  5887  03C6  1903               	skipnz
  5888  03C7  0246               	subwf	LCD_num@val,w
  5889  03C8  1C03               	skipc
  5890  03C9  2BCB               	goto	u3211
  5891  03CA  2BCC               	goto	u3210
  5892  03CB                     u3211:
  5893  03CB  2C10               	goto	l2237
  5894  03CC                     u3210:
  5895  03CC                     l2225:
  5896  03CC  3000               	movlw	0
  5897  03CD  0247               	subwf	LCD_num@val+1,w
  5898  03CE  3064               	movlw	100
  5899  03CF  1903               	skipnz
  5900  03D0  0246               	subwf	LCD_num@val,w
  5901  03D1  1803               	skipnc
  5902  03D2  2BD4               	goto	u3221
  5903  03D3  2BD5               	goto	u3220
  5904  03D4                     u3221:
  5905  03D4  2C10               	goto	l2237
  5906  03D5                     u3220:
  5907  03D5                     l2227:
  5908                           
  5909                           ;main.c: 396:     {;main.c: 397:         remainder = val % 10;
  5910  03D5  300A               	movlw	10
  5911  03D6  00F0               	movwf	___lwmod@divisor
  5912  03D7  3000               	movlw	0
  5913  03D8  00F1               	movwf	___lwmod@divisor+1
  5914  03D9  0847               	movf	LCD_num@val+1,w
  5915  03DA  00F3               	movwf	___lwmod@dividend+1
  5916  03DB  0846               	movf	LCD_num@val,w
  5917  03DC  00F2               	movwf	___lwmod@dividend
  5918  03DD  160A  118A  2787  120A  118A  	fcall	___lwmod
  5919  03E2  0871               	movf	?___lwmod+1,w
  5920  03E3  1283               	bcf	3,5	;RP0=0, select bank0
  5921  03E4  1303               	bcf	3,6	;RP1=0, select bank0
  5922  03E5  00D5               	movwf	LCD_num@remainder+1
  5923  03E6  0870               	movf	?___lwmod,w
  5924  03E7  00D4               	movwf	LCD_num@remainder
  5925  03E8                     l2229:
  5926                           
  5927                           ;main.c: 398:         digit1 = remainder;
  5928  03E8  0855               	movf	LCD_num@remainder+1,w
  5929  03E9  00CF               	movwf	LCD_num@digit1+1
  5930  03EA  0854               	movf	LCD_num@remainder,w
  5931  03EB  00CE               	movwf	LCD_num@digit1
  5932  03EC                     l2231:
  5933                           
  5934                           ;main.c: 399:         digit2 = val/10;
  5935  03EC  300A               	movlw	10
  5936  03ED  00F0               	movwf	___lwdiv@divisor
  5937  03EE  3000               	movlw	0
  5938  03EF  00F1               	movwf	___lwdiv@divisor+1
  5939  03F0  0847               	movf	LCD_num@val+1,w
  5940  03F1  00F3               	movwf	___lwdiv@dividend+1
  5941  03F2  0846               	movf	LCD_num@val,w
  5942  03F3  00F2               	movwf	___lwdiv@dividend
  5943  03F4  120A  158A  21C0  120A  118A  	fcall	___lwdiv
  5944  03F9  0871               	movf	?___lwdiv+1,w
  5945  03FA  1283               	bcf	3,5	;RP0=0, select bank0
  5946  03FB  1303               	bcf	3,6	;RP1=0, select bank0
  5947  03FC  00D1               	movwf	LCD_num@digit2+1
  5948  03FD  0870               	movf	?___lwdiv,w
  5949  03FE  00D0               	movwf	LCD_num@digit2
  5950  03FF                     l2233:
  5951                           
  5952                           ;main.c: 400:         LCD_dat(digit2+0x30);
  5953  03FF  0850               	movf	LCD_num@digit2,w
  5954  0400  3E30               	addlw	48
  5955  0401  120A  158A  2250  120A  118A  	fcall	_LCD_dat
  5956  0406                     l2235:
  5957                           
  5958                           ;main.c: 401:         LCD_dat(digit1+0x30);
  5959  0406  1283               	bcf	3,5	;RP0=0, select bank0
  5960  0407  1303               	bcf	3,6	;RP1=0, select bank0
  5961  0408  084E               	movf	LCD_num@digit1,w
  5962  0409  3E30               	addlw	48
  5963  040A  120A  158A  2250  120A  118A  	fcall	_LCD_dat
  5964                           
  5965                           ;main.c: 402:     }
  5966  040F  2D43               	goto	l225
  5967  0410                     l2237:
  5968  0410  3000               	movlw	0
  5969  0411  0247               	subwf	LCD_num@val+1,w
  5970  0412  3064               	movlw	100
  5971  0413  1903               	skipnz
  5972  0414  0246               	subwf	LCD_num@val,w
  5973  0415  1C03               	skipc
  5974  0416  2C18               	goto	u3231
  5975  0417  2C19               	goto	u3230
  5976  0418                     u3231:
  5977  0418  2C90               	goto	l2255
  5978  0419                     u3230:
  5979  0419                     l2239:
  5980  0419  3003               	movlw	3
  5981  041A  0247               	subwf	LCD_num@val+1,w
  5982  041B  30E8               	movlw	232
  5983  041C  1903               	skipnz
  5984  041D  0246               	subwf	LCD_num@val,w
  5985  041E  1803               	skipnc
  5986  041F  2C21               	goto	u3241
  5987  0420  2C22               	goto	u3240
  5988  0421                     u3241:
  5989  0421  2C90               	goto	l2255
  5990  0422                     u3240:
  5991  0422                     l2241:
  5992                           
  5993                           ;main.c: 404:     {;main.c: 405:         remainder = val % 10;
  5994  0422  300A               	movlw	10
  5995  0423  00F0               	movwf	___lwmod@divisor
  5996  0424  3000               	movlw	0
  5997  0425  00F1               	movwf	___lwmod@divisor+1
  5998  0426  0847               	movf	LCD_num@val+1,w
  5999  0427  00F3               	movwf	___lwmod@dividend+1
  6000  0428  0846               	movf	LCD_num@val,w
  6001  0429  00F2               	movwf	___lwmod@dividend
  6002  042A  160A  118A  2787  120A  118A  	fcall	___lwmod
  6003  042F  0871               	movf	?___lwmod+1,w
  6004  0430  1283               	bcf	3,5	;RP0=0, select bank0
  6005  0431  1303               	bcf	3,6	;RP1=0, select bank0
  6006  0432  00D5               	movwf	LCD_num@remainder+1
  6007  0433  0870               	movf	?___lwmod,w
  6008  0434  00D4               	movwf	LCD_num@remainder
  6009                           
  6010                           ;main.c: 406:         result1 = val /10;
  6011  0435  300A               	movlw	10
  6012  0436  00F0               	movwf	___lwdiv@divisor
  6013  0437  3000               	movlw	0
  6014  0438  00F1               	movwf	___lwdiv@divisor+1
  6015  0439  0847               	movf	LCD_num@val+1,w
  6016  043A  00F3               	movwf	___lwdiv@dividend+1
  6017  043B  0846               	movf	LCD_num@val,w
  6018  043C  00F2               	movwf	___lwdiv@dividend
  6019  043D  120A  158A  21C0  120A  118A  	fcall	___lwdiv
  6020  0442  0871               	movf	?___lwdiv+1,w
  6021  0443  1283               	bcf	3,5	;RP0=0, select bank0
  6022  0444  1303               	bcf	3,6	;RP1=0, select bank0
  6023  0445  00D3               	movwf	LCD_num@result1+1
  6024  0446  0870               	movf	?___lwdiv,w
  6025  0447  00D2               	movwf	LCD_num@result1
  6026  0448                     l2243:
  6027                           
  6028                           ;main.c: 407:         digit1 = remainder;
  6029  0448  0855               	movf	LCD_num@remainder+1,w
  6030  0449  00CF               	movwf	LCD_num@digit1+1
  6031  044A  0854               	movf	LCD_num@remainder,w
  6032  044B  00CE               	movwf	LCD_num@digit1
  6033  044C                     l2245:
  6034                           
  6035                           ;main.c: 408:         remainder = result1%10;
  6036  044C  300A               	movlw	10
  6037  044D  00F0               	movwf	___lwmod@divisor
  6038  044E  3000               	movlw	0
  6039  044F  00F1               	movwf	___lwmod@divisor+1
  6040  0450  0853               	movf	LCD_num@result1+1,w
  6041  0451  00F3               	movwf	___lwmod@dividend+1
  6042  0452  0852               	movf	LCD_num@result1,w
  6043  0453  00F2               	movwf	___lwmod@dividend
  6044  0454  160A  118A  2787  120A  118A  	fcall	___lwmod
  6045  0459  0871               	movf	?___lwmod+1,w
  6046  045A  1283               	bcf	3,5	;RP0=0, select bank0
  6047  045B  1303               	bcf	3,6	;RP1=0, select bank0
  6048  045C  00D5               	movwf	LCD_num@remainder+1
  6049  045D  0870               	movf	?___lwmod,w
  6050  045E  00D4               	movwf	LCD_num@remainder
  6051                           
  6052                           ;main.c: 409:         digit2 = remainder;
  6053  045F  0855               	movf	LCD_num@remainder+1,w
  6054  0460  00D1               	movwf	LCD_num@digit2+1
  6055  0461  0854               	movf	LCD_num@remainder,w
  6056  0462  00D0               	movwf	LCD_num@digit2
  6057  0463                     l2247:
  6058                           
  6059                           ;main.c: 410:         digit3 = result1/10;
  6060  0463  300A               	movlw	10
  6061  0464  00F0               	movwf	___lwdiv@divisor
  6062  0465  3000               	movlw	0
  6063  0466  00F1               	movwf	___lwdiv@divisor+1
  6064  0467  0853               	movf	LCD_num@result1+1,w
  6065  0468  00F3               	movwf	___lwdiv@dividend+1
  6066  0469  0852               	movf	LCD_num@result1,w
  6067  046A  00F2               	movwf	___lwdiv@dividend
  6068  046B  120A  158A  21C0  120A  118A  	fcall	___lwdiv
  6069  0470  0871               	movf	?___lwdiv+1,w
  6070  0471  1283               	bcf	3,5	;RP0=0, select bank0
  6071  0472  1303               	bcf	3,6	;RP1=0, select bank0
  6072  0473  00CD               	movwf	LCD_num@digit3+1
  6073  0474  0870               	movf	?___lwdiv,w
  6074  0475  00CC               	movwf	LCD_num@digit3
  6075  0476                     l2249:
  6076                           
  6077                           ;main.c: 411:         LCD_dat(digit3+0x30);
  6078  0476  084C               	movf	LCD_num@digit3,w
  6079  0477  3E30               	addlw	48
  6080  0478  120A  158A  2250  120A  118A  	fcall	_LCD_dat
  6081  047D                     l2251:
  6082                           
  6083                           ;main.c: 412:         LCD_dat(digit2+0x30);
  6084  047D  1283               	bcf	3,5	;RP0=0, select bank0
  6085  047E  1303               	bcf	3,6	;RP1=0, select bank0
  6086  047F  0850               	movf	LCD_num@digit2,w
  6087  0480  3E30               	addlw	48
  6088  0481  120A  158A  2250  120A  118A  	fcall	_LCD_dat
  6089  0486                     l2253:
  6090                           
  6091                           ;main.c: 413:         LCD_dat(digit1+0x30);
  6092  0486  1283               	bcf	3,5	;RP0=0, select bank0
  6093  0487  1303               	bcf	3,6	;RP1=0, select bank0
  6094  0488  084E               	movf	LCD_num@digit1,w
  6095  0489  3E30               	addlw	48
  6096  048A  120A  158A  2250  120A  118A  	fcall	_LCD_dat
  6097                           
  6098                           ;main.c: 414:     }
  6099  048F  2D43               	goto	l225
  6100  0490                     l2255:
  6101  0490  3003               	movlw	3
  6102  0491  0247               	subwf	LCD_num@val+1,w
  6103  0492  30E8               	movlw	232
  6104  0493  1903               	skipnz
  6105  0494  0246               	subwf	LCD_num@val,w
  6106  0495  1C03               	skipc
  6107  0496  2C98               	goto	u3251
  6108  0497  2C99               	goto	u3250
  6109  0498                     u3251:
  6110  0498  2D43               	goto	l221
  6111  0499                     u3250:
  6112  0499                     l2257:
  6113  0499  3027               	movlw	39
  6114  049A  0247               	subwf	LCD_num@val+1,w
  6115  049B  300F               	movlw	15
  6116  049C  1903               	skipnz
  6117  049D  0246               	subwf	LCD_num@val,w
  6118  049E  1803               	skipnc
  6119  049F  2CA1               	goto	u3261
  6120  04A0  2CA2               	goto	u3260
  6121  04A1                     u3261:
  6122  04A1  2D43               	goto	l221
  6123  04A2                     u3260:
  6124  04A2                     l2259:
  6125                           
  6126                           ;main.c: 416:     {;main.c: 417:         remainder = val % 10;
  6127  04A2  300A               	movlw	10
  6128  04A3  00F0               	movwf	___lwmod@divisor
  6129  04A4  3000               	movlw	0
  6130  04A5  00F1               	movwf	___lwmod@divisor+1
  6131  04A6  0847               	movf	LCD_num@val+1,w
  6132  04A7  00F3               	movwf	___lwmod@dividend+1
  6133  04A8  0846               	movf	LCD_num@val,w
  6134  04A9  00F2               	movwf	___lwmod@dividend
  6135  04AA  160A  118A  2787  120A  118A  	fcall	___lwmod
  6136  04AF  0871               	movf	?___lwmod+1,w
  6137  04B0  1283               	bcf	3,5	;RP0=0, select bank0
  6138  04B1  1303               	bcf	3,6	;RP1=0, select bank0
  6139  04B2  00D5               	movwf	LCD_num@remainder+1
  6140  04B3  0870               	movf	?___lwmod,w
  6141  04B4  00D4               	movwf	LCD_num@remainder
  6142                           
  6143                           ;main.c: 418:         result1 = val /10;
  6144  04B5  300A               	movlw	10
  6145  04B6  00F0               	movwf	___lwdiv@divisor
  6146  04B7  3000               	movlw	0
  6147  04B8  00F1               	movwf	___lwdiv@divisor+1
  6148  04B9  0847               	movf	LCD_num@val+1,w
  6149  04BA  00F3               	movwf	___lwdiv@dividend+1
  6150  04BB  0846               	movf	LCD_num@val,w
  6151  04BC  00F2               	movwf	___lwdiv@dividend
  6152  04BD  120A  158A  21C0  120A  118A  	fcall	___lwdiv
  6153  04C2  0871               	movf	?___lwdiv+1,w
  6154  04C3  1283               	bcf	3,5	;RP0=0, select bank0
  6155  04C4  1303               	bcf	3,6	;RP1=0, select bank0
  6156  04C5  00D3               	movwf	LCD_num@result1+1
  6157  04C6  0870               	movf	?___lwdiv,w
  6158  04C7  00D2               	movwf	LCD_num@result1
  6159  04C8                     l2261:
  6160                           
  6161                           ;main.c: 419:         digit1 = remainder;
  6162  04C8  0855               	movf	LCD_num@remainder+1,w
  6163  04C9  00CF               	movwf	LCD_num@digit1+1
  6164  04CA  0854               	movf	LCD_num@remainder,w
  6165  04CB  00CE               	movwf	LCD_num@digit1
  6166  04CC                     l2263:
  6167                           
  6168                           ;main.c: 420:         remainder = result1%10;
  6169  04CC  300A               	movlw	10
  6170  04CD  00F0               	movwf	___lwmod@divisor
  6171  04CE  3000               	movlw	0
  6172  04CF  00F1               	movwf	___lwmod@divisor+1
  6173  04D0  0853               	movf	LCD_num@result1+1,w
  6174  04D1  00F3               	movwf	___lwmod@dividend+1
  6175  04D2  0852               	movf	LCD_num@result1,w
  6176  04D3  00F2               	movwf	___lwmod@dividend
  6177  04D4  160A  118A  2787  120A  118A  	fcall	___lwmod
  6178  04D9  0871               	movf	?___lwmod+1,w
  6179  04DA  1283               	bcf	3,5	;RP0=0, select bank0
  6180  04DB  1303               	bcf	3,6	;RP1=0, select bank0
  6181  04DC  00D5               	movwf	LCD_num@remainder+1
  6182  04DD  0870               	movf	?___lwmod,w
  6183  04DE  00D4               	movwf	LCD_num@remainder
  6184                           
  6185                           ;main.c: 421:         digit2 = remainder;
  6186  04DF  0855               	movf	LCD_num@remainder+1,w
  6187  04E0  00D1               	movwf	LCD_num@digit2+1
  6188  04E1  0854               	movf	LCD_num@remainder,w
  6189  04E2  00D0               	movwf	LCD_num@digit2
  6190  04E3                     l2265:
  6191                           
  6192                           ;main.c: 422:         result = result1/10;
  6193  04E3  300A               	movlw	10
  6194  04E4  00F0               	movwf	___lwdiv@divisor
  6195  04E5  3000               	movlw	0
  6196  04E6  00F1               	movwf	___lwdiv@divisor+1
  6197  04E7  0853               	movf	LCD_num@result1+1,w
  6198  04E8  00F3               	movwf	___lwdiv@dividend+1
  6199  04E9  0852               	movf	LCD_num@result1,w
  6200  04EA  00F2               	movwf	___lwdiv@dividend
  6201  04EB  120A  158A  21C0  120A  118A  	fcall	___lwdiv
  6202  04F0  0871               	movf	?___lwdiv+1,w
  6203  04F1  1283               	bcf	3,5	;RP0=0, select bank0
  6204  04F2  1303               	bcf	3,6	;RP1=0, select bank0
  6205  04F3  00CB               	movwf	LCD_num@result+1
  6206  04F4  0870               	movf	?___lwdiv,w
  6207  04F5  00CA               	movwf	LCD_num@result
  6208  04F6                     l2267:
  6209                           
  6210                           ;main.c: 423:         remainder = result%10;
  6211  04F6  300A               	movlw	10
  6212  04F7  00F0               	movwf	___lwmod@divisor
  6213  04F8  3000               	movlw	0
  6214  04F9  00F1               	movwf	___lwmod@divisor+1
  6215  04FA  084B               	movf	LCD_num@result+1,w
  6216  04FB  00F3               	movwf	___lwmod@dividend+1
  6217  04FC  084A               	movf	LCD_num@result,w
  6218  04FD  00F2               	movwf	___lwmod@dividend
  6219  04FE  160A  118A  2787  120A  118A  	fcall	___lwmod
  6220  0503  0871               	movf	?___lwmod+1,w
  6221  0504  1283               	bcf	3,5	;RP0=0, select bank0
  6222  0505  1303               	bcf	3,6	;RP1=0, select bank0
  6223  0506  00D5               	movwf	LCD_num@remainder+1
  6224  0507  0870               	movf	?___lwmod,w
  6225  0508  00D4               	movwf	LCD_num@remainder
  6226                           
  6227                           ;main.c: 424:         digit3=remainder;
  6228  0509  0855               	movf	LCD_num@remainder+1,w
  6229  050A  00CD               	movwf	LCD_num@digit3+1
  6230  050B  0854               	movf	LCD_num@remainder,w
  6231  050C  00CC               	movwf	LCD_num@digit3
  6232  050D                     l2269:
  6233                           
  6234                           ;main.c: 425:         digit4 = result/10;
  6235  050D  300A               	movlw	10
  6236  050E  00F0               	movwf	___lwdiv@divisor
  6237  050F  3000               	movlw	0
  6238  0510  00F1               	movwf	___lwdiv@divisor+1
  6239  0511  084B               	movf	LCD_num@result+1,w
  6240  0512  00F3               	movwf	___lwdiv@dividend+1
  6241  0513  084A               	movf	LCD_num@result,w
  6242  0514  00F2               	movwf	___lwdiv@dividend
  6243  0515  120A  158A  21C0  120A  118A  	fcall	___lwdiv
  6244  051A  0871               	movf	?___lwdiv+1,w
  6245  051B  1283               	bcf	3,5	;RP0=0, select bank0
  6246  051C  1303               	bcf	3,6	;RP1=0, select bank0
  6247  051D  00C9               	movwf	LCD_num@digit4+1
  6248  051E  0870               	movf	?___lwdiv,w
  6249  051F  00C8               	movwf	LCD_num@digit4
  6250  0520                     l2271:
  6251                           
  6252                           ;main.c: 426:         LCD_dat(digit4+0x30);
  6253  0520  0848               	movf	LCD_num@digit4,w
  6254  0521  3E30               	addlw	48
  6255  0522  120A  158A  2250  120A  118A  	fcall	_LCD_dat
  6256  0527                     l2273:
  6257                           
  6258                           ;main.c: 427:         LCD_dat(digit3+0x30);
  6259  0527  1283               	bcf	3,5	;RP0=0, select bank0
  6260  0528  1303               	bcf	3,6	;RP1=0, select bank0
  6261  0529  084C               	movf	LCD_num@digit3,w
  6262  052A  3E30               	addlw	48
  6263  052B  120A  158A  2250  120A  118A  	fcall	_LCD_dat
  6264  0530                     l2275:
  6265                           
  6266                           ;main.c: 428:         LCD_dat(digit2+0x30);
  6267  0530  1283               	bcf	3,5	;RP0=0, select bank0
  6268  0531  1303               	bcf	3,6	;RP1=0, select bank0
  6269  0532  0850               	movf	LCD_num@digit2,w
  6270  0533  3E30               	addlw	48
  6271  0534  120A  158A  2250  120A  118A  	fcall	_LCD_dat
  6272  0539                     l2277:
  6273                           
  6274                           ;main.c: 429:         LCD_dat(digit1+0x30);
  6275  0539  1283               	bcf	3,5	;RP0=0, select bank0
  6276  053A  1303               	bcf	3,6	;RP1=0, select bank0
  6277  053B  084E               	movf	LCD_num@digit1,w
  6278  053C  3E30               	addlw	48
  6279  053D  120A  158A  2250  120A  118A  	fcall	_LCD_dat
  6280  0542  2D43               	goto	l225
  6281  0543                     l221:
  6282  0543                     l225:
  6283  0543  0008               	return
  6284  0544                     __end_of_LCD_num:
  6285                           
  6286                           	psect	text21
  6287  1787                     __ptext21:	
  6288 ;; *************** function ___lwmod *****************
  6289 ;; Defined at:
  6290 ;;		line 5 in file "C:\Program Files\Microchip\xc8\v2.32\pic\sources\c90\common\lwmod.c"
  6291 ;; Parameters:    Size  Location     Type
  6292 ;;  divisor         2    0[COMMON] unsigned int 
  6293 ;;  dividend        2    2[COMMON] unsigned int 
  6294 ;; Auto vars:     Size  Location     Type
  6295 ;;  counter         1    5[COMMON] unsigned char 
  6296 ;; Return value:  Size  Location     Type
  6297 ;;                  2    0[COMMON] unsigned int 
  6298 ;; Registers used:
  6299 ;;		wreg, status,2, status,0
  6300 ;; Tracked objects:
  6301 ;;		On entry : 0/0
  6302 ;;		On exit  : 0/0
  6303 ;;		Unchanged: 0/0
  6304 ;; Data sizes:     COMMON   BANK0   BANK1   BANK3   BANK2
  6305 ;;      Params:         4       0       0       0       0
  6306 ;;      Locals:         1       0       0       0       0
  6307 ;;      Temps:          1       0       0       0       0
  6308 ;;      Totals:         6       0       0       0       0
  6309 ;;Total ram usage:        6 bytes
  6310 ;; Hardware stack levels used: 1
  6311 ;; This function calls:
  6312 ;;		Nothing
  6313 ;; This function is called by:
  6314 ;;		_LCD_num
  6315 ;; This function uses a non-reentrant model
  6316 ;;
  6317                           
  6318                           
  6319                           ;psect for function ___lwmod
  6320  1787                     ___lwmod:
  6321  1787                     l2051:	
  6322                           ;incstack = 0
  6323                           ; Regs used in ___lwmod: [wreg+status,2+status,0]
  6324                           
  6325  1787  0870               	movf	___lwmod@divisor,w
  6326  1788  0471               	iorwf	___lwmod@divisor+1,w
  6327  1789  1903               	btfsc	3,2
  6328  178A  2F8C               	goto	u2531
  6329  178B  2F8D               	goto	u2530
  6330  178C                     u2531:
  6331  178C  2FBC               	goto	l2069
  6332  178D                     u2530:
  6333  178D                     l2053:
  6334  178D  01F5               	clrf	___lwmod@counter
  6335  178E  0AF5               	incf	___lwmod@counter,f
  6336  178F  2F9B               	goto	l2059
  6337  1790                     l2055:
  6338  1790  3001               	movlw	1
  6339  1791                     u2545:
  6340  1791  1003               	clrc
  6341  1792  0DF0               	rlf	___lwmod@divisor,f
  6342  1793  0DF1               	rlf	___lwmod@divisor+1,f
  6343  1794  3EFF               	addlw	-1
  6344  1795  1D03               	skipz
  6345  1796  2F91               	goto	u2545
  6346  1797                     l2057:
  6347  1797  3001               	movlw	1
  6348  1798  00F4               	movwf	??___lwmod
  6349  1799  0874               	movf	??___lwmod,w
  6350  179A  07F5               	addwf	___lwmod@counter,f
  6351  179B                     l2059:
  6352  179B  1FF1               	btfss	___lwmod@divisor+1,7
  6353  179C  2F9E               	goto	u2551
  6354  179D  2F9F               	goto	u2550
  6355  179E                     u2551:
  6356  179E  2F90               	goto	l2055
  6357  179F                     u2550:
  6358  179F                     l2061:
  6359  179F  0871               	movf	___lwmod@divisor+1,w
  6360  17A0  0273               	subwf	___lwmod@dividend+1,w
  6361  17A1  1D03               	skipz
  6362  17A2  2FA5               	goto	u2565
  6363  17A3  0870               	movf	___lwmod@divisor,w
  6364  17A4  0272               	subwf	___lwmod@dividend,w
  6365  17A5                     u2565:
  6366  17A5  1C03               	skipc
  6367  17A6  2FA8               	goto	u2561
  6368  17A7  2FA9               	goto	u2560
  6369  17A8                     u2561:
  6370  17A8  2FAF               	goto	l2065
  6371  17A9                     u2560:
  6372  17A9                     l2063:
  6373  17A9  0870               	movf	___lwmod@divisor,w
  6374  17AA  02F2               	subwf	___lwmod@dividend,f
  6375  17AB  0871               	movf	___lwmod@divisor+1,w
  6376  17AC  1C03               	skipc
  6377  17AD  03F3               	decf	___lwmod@dividend+1,f
  6378  17AE  02F3               	subwf	___lwmod@dividend+1,f
  6379  17AF                     l2065:
  6380  17AF  3001               	movlw	1
  6381  17B0                     u2575:
  6382  17B0  1003               	clrc
  6383  17B1  0CF1               	rrf	___lwmod@divisor+1,f
  6384  17B2  0CF0               	rrf	___lwmod@divisor,f
  6385  17B3  3EFF               	addlw	-1
  6386  17B4  1D03               	skipz
  6387  17B5  2FB0               	goto	u2575
  6388  17B6                     l2067:
  6389  17B6  3001               	movlw	1
  6390  17B7  02F5               	subwf	___lwmod@counter,f
  6391  17B8  1D03               	btfss	3,2
  6392  17B9  2FBB               	goto	u2581
  6393  17BA  2FBC               	goto	u2580
  6394  17BB                     u2581:
  6395  17BB  2F9F               	goto	l2061
  6396  17BC                     u2580:
  6397  17BC                     l2069:
  6398  17BC  0873               	movf	___lwmod@dividend+1,w
  6399  17BD  00F1               	movwf	?___lwmod+1
  6400  17BE  0872               	movf	___lwmod@dividend,w
  6401  17BF  00F0               	movwf	?___lwmod
  6402  17C0                     l599:
  6403  17C0  0008               	return
  6404  17C1                     __end_of___lwmod:
  6405                           
  6406                           	psect	text22
  6407  09C0                     __ptext22:	
  6408 ;; *************** function ___lwdiv *****************
  6409 ;; Defined at:
  6410 ;;		line 5 in file "C:\Program Files\Microchip\xc8\v2.32\pic\sources\c90\common\lwdiv.c"
  6411 ;; Parameters:    Size  Location     Type
  6412 ;;  divisor         2    0[COMMON] unsigned int 
  6413 ;;  dividend        2    2[COMMON] unsigned int 
  6414 ;; Auto vars:     Size  Location     Type
  6415 ;;  quotient        2    5[COMMON] unsigned int 
  6416 ;;  counter         1    7[COMMON] unsigned char 
  6417 ;; Return value:  Size  Location     Type
  6418 ;;                  2    0[COMMON] unsigned int 
  6419 ;; Registers used:
  6420 ;;		wreg, status,2, status,0
  6421 ;; Tracked objects:
  6422 ;;		On entry : 0/0
  6423 ;;		On exit  : 0/0
  6424 ;;		Unchanged: 0/0
  6425 ;; Data sizes:     COMMON   BANK0   BANK1   BANK3   BANK2
  6426 ;;      Params:         4       0       0       0       0
  6427 ;;      Locals:         3       0       0       0       0
  6428 ;;      Temps:          1       0       0       0       0
  6429 ;;      Totals:         8       0       0       0       0
  6430 ;;Total ram usage:        8 bytes
  6431 ;; Hardware stack levels used: 1
  6432 ;; This function calls:
  6433 ;;		Nothing
  6434 ;; This function is called by:
  6435 ;;		_LCD_num
  6436 ;; This function uses a non-reentrant model
  6437 ;;
  6438                           
  6439                           
  6440                           ;psect for function ___lwdiv
  6441  09C0                     ___lwdiv:
  6442  09C0                     l2025:	
  6443                           ;incstack = 0
  6444                           ; Regs used in ___lwdiv: [wreg+status,2+status,0]
  6445                           
  6446  09C0  01F5               	clrf	___lwdiv@quotient
  6447  09C1  01F6               	clrf	___lwdiv@quotient+1
  6448  09C2                     l2027:
  6449  09C2  0870               	movf	___lwdiv@divisor,w
  6450  09C3  0471               	iorwf	___lwdiv@divisor+1,w
  6451  09C4  1903               	btfsc	3,2
  6452  09C5  29C7               	goto	u2461
  6453  09C6  29C8               	goto	u2460
  6454  09C7                     u2461:
  6455  09C7  29FF               	goto	l2047
  6456  09C8                     u2460:
  6457  09C8                     l2029:
  6458  09C8  01F7               	clrf	___lwdiv@counter
  6459  09C9  0AF7               	incf	___lwdiv@counter,f
  6460  09CA  29D6               	goto	l2035
  6461  09CB                     l2031:
  6462  09CB  3001               	movlw	1
  6463  09CC                     u2475:
  6464  09CC  1003               	clrc
  6465  09CD  0DF0               	rlf	___lwdiv@divisor,f
  6466  09CE  0DF1               	rlf	___lwdiv@divisor+1,f
  6467  09CF  3EFF               	addlw	-1
  6468  09D0  1D03               	skipz
  6469  09D1  29CC               	goto	u2475
  6470  09D2                     l2033:
  6471  09D2  3001               	movlw	1
  6472  09D3  00F4               	movwf	??___lwdiv
  6473  09D4  0874               	movf	??___lwdiv,w
  6474  09D5  07F7               	addwf	___lwdiv@counter,f
  6475  09D6                     l2035:
  6476  09D6  1FF1               	btfss	___lwdiv@divisor+1,7
  6477  09D7  29D9               	goto	u2481
  6478  09D8  29DA               	goto	u2480
  6479  09D9                     u2481:
  6480  09D9  29CB               	goto	l2031
  6481  09DA                     u2480:
  6482  09DA                     l2037:
  6483  09DA  3001               	movlw	1
  6484  09DB                     u2495:
  6485  09DB  1003               	clrc
  6486  09DC  0DF5               	rlf	___lwdiv@quotient,f
  6487  09DD  0DF6               	rlf	___lwdiv@quotient+1,f
  6488  09DE  3EFF               	addlw	-1
  6489  09DF  1D03               	skipz
  6490  09E0  29DB               	goto	u2495
  6491  09E1  0871               	movf	___lwdiv@divisor+1,w
  6492  09E2  0273               	subwf	___lwdiv@dividend+1,w
  6493  09E3  1D03               	skipz
  6494  09E4  29E7               	goto	u2505
  6495  09E5  0870               	movf	___lwdiv@divisor,w
  6496  09E6  0272               	subwf	___lwdiv@dividend,w
  6497  09E7                     u2505:
  6498  09E7  1C03               	skipc
  6499  09E8  29EA               	goto	u2501
  6500  09E9  29EB               	goto	u2500
  6501  09EA                     u2501:
  6502  09EA  29F2               	goto	l2043
  6503  09EB                     u2500:
  6504  09EB                     l2039:
  6505  09EB  0870               	movf	___lwdiv@divisor,w
  6506  09EC  02F2               	subwf	___lwdiv@dividend,f
  6507  09ED  0871               	movf	___lwdiv@divisor+1,w
  6508  09EE  1C03               	skipc
  6509  09EF  03F3               	decf	___lwdiv@dividend+1,f
  6510  09F0  02F3               	subwf	___lwdiv@dividend+1,f
  6511  09F1                     l2041:
  6512  09F1  1475               	bsf	___lwdiv@quotient,0
  6513  09F2                     l2043:
  6514  09F2  3001               	movlw	1
  6515  09F3                     u2515:
  6516  09F3  1003               	clrc
  6517  09F4  0CF1               	rrf	___lwdiv@divisor+1,f
  6518  09F5  0CF0               	rrf	___lwdiv@divisor,f
  6519  09F6  3EFF               	addlw	-1
  6520  09F7  1D03               	skipz
  6521  09F8  29F3               	goto	u2515
  6522  09F9                     l2045:
  6523  09F9  3001               	movlw	1
  6524  09FA  02F7               	subwf	___lwdiv@counter,f
  6525  09FB  1D03               	btfss	3,2
  6526  09FC  29FE               	goto	u2521
  6527  09FD  29FF               	goto	u2520
  6528  09FE                     u2521:
  6529  09FE  29DA               	goto	l2037
  6530  09FF                     u2520:
  6531  09FF                     l2047:
  6532  09FF  0876               	movf	___lwdiv@quotient+1,w
  6533  0A00  00F1               	movwf	?___lwdiv+1
  6534  0A01  0875               	movf	___lwdiv@quotient,w
  6535  0A02  00F0               	movwf	?___lwdiv
  6536  0A03                     l589:
  6537  0A03  0008               	return
  6538  0A04                     __end_of___lwdiv:
  6539                           
  6540                           	psect	text23
  6541  0A50                     __ptext23:	
  6542 ;; *************** function _LCD_dat *****************
  6543 ;; Defined at:
  6544 ;;		line 118 in file "main.c"
  6545 ;; Parameters:    Size  Location     Type
  6546 ;;  data            1    wreg     unsigned char 
  6547 ;; Auto vars:     Size  Location     Type
  6548 ;;  data            1    2[COMMON] unsigned char 
  6549 ;; Return value:  Size  Location     Type
  6550 ;;                  1    wreg      void 
  6551 ;; Registers used:
  6552 ;;		wreg, status,2, status,0
  6553 ;; Tracked objects:
  6554 ;;		On entry : 0/0
  6555 ;;		On exit  : 0/0
  6556 ;;		Unchanged: 0/0
  6557 ;; Data sizes:     COMMON   BANK0   BANK1   BANK3   BANK2
  6558 ;;      Params:         0       0       0       0       0
  6559 ;;      Locals:         1       0       0       0       0
  6560 ;;      Temps:          2       0       0       0       0
  6561 ;;      Totals:         3       0       0       0       0
  6562 ;;Total ram usage:        3 bytes
  6563 ;; Hardware stack levels used: 1
  6564 ;; This function calls:
  6565 ;;		Nothing
  6566 ;; This function is called by:
  6567 ;;		_show
  6568 ;;		_LCD_num
  6569 ;;		_proceeding_text
  6570 ;; This function uses a non-reentrant model
  6571 ;;
  6572                           
  6573                           
  6574                           ;psect for function _LCD_dat
  6575  0A50                     _LCD_dat:
  6576                           
  6577                           ;incstack = 0
  6578                           ; Regs used in _LCD_dat: [wreg+status,2+status,0]
  6579                           ;LCD_dat@data stored from wreg
  6580  0A50  00F2               	movwf	LCD_dat@data
  6581  0A51                     l2005:
  6582                           
  6583                           ;main.c: 118: void LCD_dat(unsigned char data);main.c: 119: {;main.c: 120:     RC2 =1;
  6584  0A51  1283               	bcf	3,5	;RP0=0, select bank0
  6585  0A52  1303               	bcf	3,6	;RP1=0, select bank0
  6586  0A53  1507               	bsf	7,2	;volatile
  6587  0A54                     l2007:
  6588                           
  6589                           ;main.c: 121:    _delay((unsigned long)((10)*(20000000/4000.0)));
  6590  0A54  3041               	movlw	65
  6591  0A55  00F1               	movwf	??_LCD_dat+1
  6592  0A56  30EE               	movlw	238
  6593  0A57  00F0               	movwf	??_LCD_dat
  6594  0A58                     u3537:
  6595  0A58  0BF0               	decfsz	??_LCD_dat,f
  6596  0A59  2A58               	goto	u3537
  6597  0A5A  0BF1               	decfsz	??_LCD_dat+1,f
  6598  0A5B  2A58               	goto	u3537
  6599  0A5C  0000               	nop
  6600                           
  6601                           ;main.c: 122:    PORTC =(data);
  6602  0A5D  0872               	movf	LCD_dat@data,w
  6603  0A5E  1283               	bcf	3,5	;RP0=0, select bank0
  6604  0A5F  1303               	bcf	3,6	;RP1=0, select bank0
  6605  0A60  0087               	movwf	7	;volatile
  6606  0A61                     l2009:
  6607                           
  6608                           ;main.c: 123:    RC3=1;
  6609  0A61  1587               	bsf	7,3	;volatile
  6610                           
  6611                           ;main.c: 124:    _delay((unsigned long)((10)*(20000000/4000.0)));
  6612  0A62  3041               	movlw	65
  6613  0A63  00F1               	movwf	??_LCD_dat+1
  6614  0A64  30EE               	movlw	238
  6615  0A65  00F0               	movwf	??_LCD_dat
  6616  0A66                     u3547:
  6617  0A66  0BF0               	decfsz	??_LCD_dat,f
  6618  0A67  2A66               	goto	u3547
  6619  0A68  0BF1               	decfsz	??_LCD_dat+1,f
  6620  0A69  2A66               	goto	u3547
  6621  0A6A  0000               	nop
  6622  0A6B                     l2011:
  6623                           
  6624                           ;main.c: 125:    RC3=0;
  6625  0A6B  1283               	bcf	3,5	;RP0=0, select bank0
  6626  0A6C  1303               	bcf	3,6	;RP1=0, select bank0
  6627  0A6D  1187               	bcf	7,3	;volatile
  6628                           
  6629                           ;main.c: 126:    _delay((unsigned long)((10)*(20000000/4000.0)));
  6630  0A6E  3041               	movlw	65
  6631  0A6F  00F1               	movwf	??_LCD_dat+1
  6632  0A70  30EE               	movlw	238
  6633  0A71  00F0               	movwf	??_LCD_dat
  6634  0A72                     u3557:
  6635  0A72  0BF0               	decfsz	??_LCD_dat,f
  6636  0A73  2A72               	goto	u3557
  6637  0A74  0BF1               	decfsz	??_LCD_dat+1,f
  6638  0A75  2A72               	goto	u3557
  6639  0A76  0000               	nop
  6640  0A77                     l2013:
  6641                           
  6642                           ;main.c: 127:    PORTC=(data<<4);
  6643  0A77  0872               	movf	LCD_dat@data,w
  6644  0A78  00F0               	movwf	??_LCD_dat
  6645  0A79  3003               	movlw	3
  6646  0A7A                     u2455:
  6647  0A7A  1003               	clrc
  6648  0A7B  0DF0               	rlf	??_LCD_dat,f
  6649  0A7C  3EFF               	addlw	-1
  6650  0A7D  1D03               	skipz
  6651  0A7E  2A7A               	goto	u2455
  6652  0A7F  1003               	clrc
  6653  0A80  0D70               	rlf	??_LCD_dat,w
  6654  0A81  1283               	bcf	3,5	;RP0=0, select bank0
  6655  0A82  1303               	bcf	3,6	;RP1=0, select bank0
  6656  0A83  0087               	movwf	7	;volatile
  6657  0A84                     l2015:
  6658                           
  6659                           ;main.c: 128:    RC2 =1;
  6660  0A84  1507               	bsf	7,2	;volatile
  6661  0A85                     l2017:
  6662                           
  6663                           ;main.c: 129:    RC3=1;
  6664  0A85  1587               	bsf	7,3	;volatile
  6665  0A86                     l2019:
  6666                           
  6667                           ;main.c: 130:    _delay((unsigned long)((10)*(20000000/4000.0)));
  6668  0A86  3041               	movlw	65
  6669  0A87  00F1               	movwf	??_LCD_dat+1
  6670  0A88  30EE               	movlw	238
  6671  0A89  00F0               	movwf	??_LCD_dat
  6672  0A8A                     u3567:
  6673  0A8A  0BF0               	decfsz	??_LCD_dat,f
  6674  0A8B  2A8A               	goto	u3567
  6675  0A8C  0BF1               	decfsz	??_LCD_dat+1,f
  6676  0A8D  2A8A               	goto	u3567
  6677  0A8E  0000               	nop
  6678  0A8F                     l2021:
  6679                           
  6680                           ;main.c: 131:    RC3=0;
  6681  0A8F  1283               	bcf	3,5	;RP0=0, select bank0
  6682  0A90  1303               	bcf	3,6	;RP1=0, select bank0
  6683  0A91  1187               	bcf	7,3	;volatile
  6684  0A92                     l2023:
  6685                           
  6686                           ;main.c: 132:    _delay((unsigned long)((10)*(20000000/4000.0)));
  6687  0A92  3041               	movlw	65
  6688  0A93  00F1               	movwf	??_LCD_dat+1
  6689  0A94  30EE               	movlw	238
  6690  0A95  00F0               	movwf	??_LCD_dat
  6691  0A96                     u3577:
  6692  0A96  0BF0               	decfsz	??_LCD_dat,f
  6693  0A97  2A96               	goto	u3577
  6694  0A98  0BF1               	decfsz	??_LCD_dat+1,f
  6695  0A99  2A96               	goto	u3577
  6696  0A9A  0000               	nop
  6697  0A9B                     l113:
  6698  0A9B  0008               	return
  6699  0A9C                     __end_of_LCD_dat:
  6700                           
  6701                           	psect	text24
  6702  17C1                     __ptext24:	
  6703 ;; *************** function _attach_sizes *****************
  6704 ;; Defined at:
  6705 ;;		line 335 in file "main.c"
  6706 ;; Parameters:    Size  Location     Type
  6707 ;;		None
  6708 ;; Auto vars:     Size  Location     Type
  6709 ;;  n4              1    8[COMMON] unsigned char 
  6710 ;;  n3              1    7[COMMON] unsigned char 
  6711 ;;  er              1    6[COMMON] unsigned char 
  6712 ;; Return value:  Size  Location     Type
  6713 ;;                  1    wreg      unsigned char 
  6714 ;; Registers used:
  6715 ;;		wreg, status,2, status,0, pclath, cstack
  6716 ;; Tracked objects:
  6717 ;;		On entry : 0/0
  6718 ;;		On exit  : 0/0
  6719 ;;		Unchanged: 0/0
  6720 ;; Data sizes:     COMMON   BANK0   BANK1   BANK3   BANK2
  6721 ;;      Params:         0       0       0       0       0
  6722 ;;      Locals:         3       0       0       0       0
  6723 ;;      Temps:          2       0       0       0       0
  6724 ;;      Totals:         5       0       0       0       0
  6725 ;;Total ram usage:        5 bytes
  6726 ;; Hardware stack levels used: 1
  6727 ;; Hardware stack levels required when called: 1
  6728 ;; This function calls:
  6729 ;;		___bmul
  6730 ;; This function is called by:
  6731 ;;		_main
  6732 ;; This function uses a non-reentrant model
  6733 ;;
  6734                           
  6735                           
  6736                           ;psect for function _attach_sizes
  6737  17C1                     _attach_sizes:
  6738  17C1                     l2403:	
  6739                           ;incstack = 0
  6740                           ; Regs used in _attach_sizes: [wreg+status,2+status,0+pclath+cstack]
  6741                           
  6742                           
  6743                           ;main.c: 337:     bs = b1*10 + b2;
  6744  17C1  300A               	movlw	10
  6745  17C2  00F4               	movwf	??_attach_sizes
  6746  17C3  0874               	movf	??_attach_sizes,w
  6747  17C4  00F0               	movwf	___bmul@multiplicand
  6748  17C5  1283               	bcf	3,5	;RP0=0, select bank0
  6749  17C6  1303               	bcf	3,6	;RP1=0, select bank0
  6750  17C7  086C               	movf	_b1,w
  6751  17C8  160A  118A  272F  160A  118A  	fcall	___bmul
  6752  17CD  1283               	bcf	3,5	;RP0=0, select bank0
  6753  17CE  1303               	bcf	3,6	;RP1=0, select bank0
  6754  17CF  076B               	addwf	_b2,w
  6755  17D0  00F5               	movwf	??_attach_sizes+1
  6756  17D1  0875               	movf	??_attach_sizes+1,w
  6757  17D2  1683               	bsf	3,5	;RP0=1, select bank1
  6758  17D3  1303               	bcf	3,6	;RP1=0, select bank1
  6759  17D4  00D7               	movwf	_bs^(0+128)
  6760                           
  6761                           ;main.c: 338:     cs = c1*10 + c2;
  6762  17D5  300A               	movlw	10
  6763  17D6  00F4               	movwf	??_attach_sizes
  6764  17D7  0874               	movf	??_attach_sizes,w
  6765  17D8  00F0               	movwf	___bmul@multiplicand
  6766  17D9  1283               	bcf	3,5	;RP0=0, select bank0
  6767  17DA  1303               	bcf	3,6	;RP1=0, select bank0
  6768  17DB  086A               	movf	_c1,w
  6769  17DC  160A  118A  272F  160A  118A  	fcall	___bmul
  6770  17E1  1283               	bcf	3,5	;RP0=0, select bank0
  6771  17E2  1303               	bcf	3,6	;RP1=0, select bank0
  6772  17E3  0769               	addwf	_c2,w
  6773  17E4  00F5               	movwf	??_attach_sizes+1
  6774  17E5  0875               	movf	??_attach_sizes+1,w
  6775  17E6  1683               	bsf	3,5	;RP0=1, select bank1
  6776  17E7  1303               	bcf	3,6	;RP1=0, select bank1
  6777  17E8  00D6               	movwf	_cs^(0+128)
  6778  17E9                     l2405:
  6779                           
  6780                           ;main.c: 340:     unsigned char n3 = n1;
  6781  17E9  1283               	bcf	3,5	;RP0=0, select bank0
  6782  17EA  1303               	bcf	3,6	;RP1=0, select bank0
  6783  17EB  0868               	movf	_n1,w
  6784  17EC  00F4               	movwf	??_attach_sizes
  6785  17ED  0874               	movf	??_attach_sizes,w
  6786  17EE  00F7               	movwf	attach_sizes@n3
  6787  17EF                     l2407:
  6788                           
  6789                           ;main.c: 341:     unsigned char n4 = n2;
  6790  17EF  0867               	movf	_n2,w
  6791  17F0  00F4               	movwf	??_attach_sizes
  6792  17F1  0874               	movf	??_attach_sizes,w
  6793  17F2  00F8               	movwf	attach_sizes@n4
  6794                           
  6795                           ;main.c: 342:     unsigned char er;;main.c: 343:     return er = n3*10 + n4;
  6796  17F3  300A               	movlw	10
  6797  17F4  00F4               	movwf	??_attach_sizes
  6798  17F5  0874               	movf	??_attach_sizes,w
  6799  17F6  00F0               	movwf	___bmul@multiplicand
  6800  17F7  0877               	movf	attach_sizes@n3,w
  6801  17F8  160A  118A  272F  160A  118A  	fcall	___bmul
  6802  17FD  0778               	addwf	attach_sizes@n4,w
  6803  17FE  00F6               	movwf	attach_sizes@er
  6804  17FF                     l203:
  6805  17FF  0008               	return
  6806  1800                     __end_of_attach_sizes:
  6807                           
  6808                           	psect	text25
  6809  172F                     __ptext25:	
  6810 ;; *************** function ___bmul *****************
  6811 ;; Defined at:
  6812 ;;		line 4 in file "C:\Program Files\Microchip\xc8\v2.32\pic\sources\c90\common\Umul8.c"
  6813 ;; Parameters:    Size  Location     Type
  6814 ;;  multiplier      1    wreg     unsigned char 
  6815 ;;  multiplicand    1    0[COMMON] unsigned char 
  6816 ;; Auto vars:     Size  Location     Type
  6817 ;;  multiplier      1    3[COMMON] unsigned char 
  6818 ;;  product         1    2[COMMON] unsigned char 
  6819 ;; Return value:  Size  Location     Type
  6820 ;;                  1    wreg      unsigned char 
  6821 ;; Registers used:
  6822 ;;		wreg, status,2, status,0
  6823 ;; Tracked objects:
  6824 ;;		On entry : 0/0
  6825 ;;		On exit  : 0/0
  6826 ;;		Unchanged: 0/0
  6827 ;; Data sizes:     COMMON   BANK0   BANK1   BANK3   BANK2
  6828 ;;      Params:         1       0       0       0       0
  6829 ;;      Locals:         2       0       0       0       0
  6830 ;;      Temps:          1       0       0       0       0
  6831 ;;      Totals:         4       0       0       0       0
  6832 ;;Total ram usage:        4 bytes
  6833 ;; Hardware stack levels used: 1
  6834 ;; This function calls:
  6835 ;;		Nothing
  6836 ;; This function is called by:
  6837 ;;		_main
  6838 ;;		_attach_sizes
  6839 ;; This function uses a non-reentrant model
  6840 ;;
  6841                           
  6842                           
  6843                           ;psect for function ___bmul
  6844  172F                     ___bmul:
  6845                           
  6846                           ;incstack = 0
  6847                           ; Regs used in ___bmul: [wreg+status,2+status,0]
  6848                           ;___bmul@multiplier stored from wreg
  6849  172F  00F3               	movwf	___bmul@multiplier
  6850  1730                     l2287:
  6851  1730  01F2               	clrf	___bmul@product
  6852  1731                     l2289:
  6853  1731  1C73               	btfss	___bmul@multiplier,0
  6854  1732  2F34               	goto	u3271
  6855  1733  2F35               	goto	u3270
  6856  1734                     u3271:
  6857  1734  2F39               	goto	l2293
  6858  1735                     u3270:
  6859  1735                     l2291:
  6860  1735  0870               	movf	___bmul@multiplicand,w
  6861  1736  00F1               	movwf	??___bmul
  6862  1737  0871               	movf	??___bmul,w
  6863  1738  07F2               	addwf	___bmul@product,f
  6864  1739                     l2293:
  6865  1739  1003               	clrc
  6866  173A  0DF0               	rlf	___bmul@multiplicand,f
  6867  173B                     l2295:
  6868  173B  1003               	clrc
  6869  173C  0CF3               	rrf	___bmul@multiplier,f
  6870  173D  0873               	movf	___bmul@multiplier,w
  6871  173E  1D03               	btfss	3,2
  6872  173F  2F41               	goto	u3281
  6873  1740  2F42               	goto	u3280
  6874  1741                     u3281:
  6875  1741  2F31               	goto	l2289
  6876  1742                     u3280:
  6877  1742                     l2297:
  6878  1742  0872               	movf	___bmul@product,w
  6879  1743                     l343:
  6880  1743  0008               	return
  6881  1744                     __end_of___bmul:
  6882                           
  6883                           	psect	text26
  6884  1744                     __ptext26:	
  6885 ;; *************** function _LCD_init *****************
  6886 ;; Defined at:
  6887 ;;		line 92 in file "main.c"
  6888 ;; Parameters:    Size  Location     Type
  6889 ;;		None
  6890 ;; Auto vars:     Size  Location     Type
  6891 ;;		None
  6892 ;; Return value:  Size  Location     Type
  6893 ;;                  1    wreg      void 
  6894 ;; Registers used:
  6895 ;;		wreg, status,2, status,0, pclath, cstack
  6896 ;; Tracked objects:
  6897 ;;		On entry : 0/0
  6898 ;;		On exit  : 0/0
  6899 ;;		Unchanged: 0/0
  6900 ;; Data sizes:     COMMON   BANK0   BANK1   BANK3   BANK2
  6901 ;;      Params:         0       0       0       0       0
  6902 ;;      Locals:         0       0       0       0       0
  6903 ;;      Temps:          0       0       0       0       0
  6904 ;;      Totals:         0       0       0       0       0
  6905 ;;Total ram usage:        0 bytes
  6906 ;; Hardware stack levels used: 1
  6907 ;; Hardware stack levels required when called: 1
  6908 ;; This function calls:
  6909 ;;		_LCD_cmd
  6910 ;; This function is called by:
  6911 ;;		_main
  6912 ;; This function uses a non-reentrant model
  6913 ;;
  6914                           
  6915                           
  6916                           ;psect for function _LCD_init
  6917  1744                     _LCD_init:
  6918  1744                     l2301:	
  6919                           ;incstack = 0
  6920                           ; Regs used in _LCD_init: [wreg+status,2+status,0+pclath+cstack]
  6921                           
  6922                           
  6923                           ;main.c: 94:     LCD_cmd(0x02);
  6924  1744  3002               	movlw	2
  6925  1745  120A  158A  2204  160A  118A  	fcall	_LCD_cmd
  6926                           
  6927                           ;main.c: 95:     LCD_cmd(0x28);
  6928  174A  3028               	movlw	40
  6929  174B  120A  158A  2204  160A  118A  	fcall	_LCD_cmd
  6930                           
  6931                           ;main.c: 96:     LCD_cmd(0x0e);
  6932  1750  300E               	movlw	14
  6933  1751  120A  158A  2204  160A  118A  	fcall	_LCD_cmd
  6934                           
  6935                           ;main.c: 97:     LCD_cmd(0x06);
  6936  1756  3006               	movlw	6
  6937  1757  120A  158A  2204  160A  118A  	fcall	_LCD_cmd
  6938                           
  6939                           ;main.c: 98:     LCD_cmd(0x80);
  6940  175C  3080               	movlw	128
  6941  175D  120A  158A  2204  160A  118A  	fcall	_LCD_cmd
  6942  1762                     l107:
  6943  1762  0008               	return
  6944  1763                     __end_of_LCD_init:
  6945                           
  6946                           	psect	text27
  6947  0A04                     __ptext27:	
  6948 ;; *************** function _LCD_cmd *****************
  6949 ;; Defined at:
  6950 ;;		line 101 in file "main.c"
  6951 ;; Parameters:    Size  Location     Type
  6952 ;;  cmd             1    wreg     unsigned char 
  6953 ;; Auto vars:     Size  Location     Type
  6954 ;;  cmd             1    2[COMMON] unsigned char 
  6955 ;; Return value:  Size  Location     Type
  6956 ;;                  1    wreg      void 
  6957 ;; Registers used:
  6958 ;;		wreg, status,2, status,0
  6959 ;; Tracked objects:
  6960 ;;		On entry : 0/0
  6961 ;;		On exit  : 0/0
  6962 ;;		Unchanged: 0/0
  6963 ;; Data sizes:     COMMON   BANK0   BANK1   BANK3   BANK2
  6964 ;;      Params:         0       0       0       0       0
  6965 ;;      Locals:         1       0       0       0       0
  6966 ;;      Temps:          2       0       0       0       0
  6967 ;;      Totals:         3       0       0       0       0
  6968 ;;Total ram usage:        3 bytes
  6969 ;; Hardware stack levels used: 1
  6970 ;; This function calls:
  6971 ;;		Nothing
  6972 ;; This function is called by:
  6973 ;;		_LCD_init
  6974 ;;		_fetch_sizes
  6975 ;;		_lookuptable
  6976 ;;		_display_data
  6977 ;;		_rotation
  6978 ;;		_result_display
  6979 ;;		_welcome_text
  6980 ;;		_proceeding_text
  6981 ;; This function uses a non-reentrant model
  6982 ;;
  6983                           
  6984                           
  6985                           ;psect for function _LCD_cmd
  6986  0A04                     _LCD_cmd:
  6987                           
  6988                           ;incstack = 0
  6989                           ; Regs used in _LCD_cmd: [wreg+status,2+status,0]
  6990                           ;LCD_cmd@cmd stored from wreg
  6991  0A04  00F2               	movwf	LCD_cmd@cmd
  6992  0A05                     l2097:
  6993                           
  6994                           ;main.c: 101: void LCD_cmd(unsigned char cmd);main.c: 102: {;main.c: 103:     RC2=0;
  6995  0A05  1283               	bcf	3,5	;RP0=0, select bank0
  6996  0A06  1303               	bcf	3,6	;RP1=0, select bank0
  6997  0A07  1107               	bcf	7,2	;volatile
  6998  0A08                     l2099:
  6999                           
  7000                           ;main.c: 104:    _delay((unsigned long)((10)*(20000000/4000.0)));
  7001  0A08  3041               	movlw	65
  7002  0A09  00F1               	movwf	??_LCD_cmd+1
  7003  0A0A  30EE               	movlw	238
  7004  0A0B  00F0               	movwf	??_LCD_cmd
  7005  0A0C                     u3587:
  7006  0A0C  0BF0               	decfsz	??_LCD_cmd,f
  7007  0A0D  2A0C               	goto	u3587
  7008  0A0E  0BF1               	decfsz	??_LCD_cmd+1,f
  7009  0A0F  2A0C               	goto	u3587
  7010  0A10  0000               	nop
  7011                           
  7012                           ;main.c: 105:    PORTC =(cmd);
  7013  0A11  0872               	movf	LCD_cmd@cmd,w
  7014  0A12  1283               	bcf	3,5	;RP0=0, select bank0
  7015  0A13  1303               	bcf	3,6	;RP1=0, select bank0
  7016  0A14  0087               	movwf	7	;volatile
  7017  0A15                     l2101:
  7018                           
  7019                           ;main.c: 106:    RC3=1;
  7020  0A15  1587               	bsf	7,3	;volatile
  7021                           
  7022                           ;main.c: 107:    _delay((unsigned long)((10)*(20000000/4000.0)));
  7023  0A16  3041               	movlw	65
  7024  0A17  00F1               	movwf	??_LCD_cmd+1
  7025  0A18  30EE               	movlw	238
  7026  0A19  00F0               	movwf	??_LCD_cmd
  7027  0A1A                     u3597:
  7028  0A1A  0BF0               	decfsz	??_LCD_cmd,f
  7029  0A1B  2A1A               	goto	u3597
  7030  0A1C  0BF1               	decfsz	??_LCD_cmd+1,f
  7031  0A1D  2A1A               	goto	u3597
  7032  0A1E  0000               	nop
  7033  0A1F                     l2103:
  7034                           
  7035                           ;main.c: 108:    RC3=0;
  7036  0A1F  1283               	bcf	3,5	;RP0=0, select bank0
  7037  0A20  1303               	bcf	3,6	;RP1=0, select bank0
  7038  0A21  1187               	bcf	7,3	;volatile
  7039                           
  7040                           ;main.c: 109:    _delay((unsigned long)((10)*(20000000/4000.0)));
  7041  0A22  3041               	movlw	65
  7042  0A23  00F1               	movwf	??_LCD_cmd+1
  7043  0A24  30EE               	movlw	238
  7044  0A25  00F0               	movwf	??_LCD_cmd
  7045  0A26                     u3607:
  7046  0A26  0BF0               	decfsz	??_LCD_cmd,f
  7047  0A27  2A26               	goto	u3607
  7048  0A28  0BF1               	decfsz	??_LCD_cmd+1,f
  7049  0A29  2A26               	goto	u3607
  7050  0A2A  0000               	nop
  7051  0A2B                     l2105:
  7052                           
  7053                           ;main.c: 110:    PORTC=(cmd<<4);
  7054  0A2B  0872               	movf	LCD_cmd@cmd,w
  7055  0A2C  00F0               	movwf	??_LCD_cmd
  7056  0A2D  3003               	movlw	3
  7057  0A2E                     u2615:
  7058  0A2E  1003               	clrc
  7059  0A2F  0DF0               	rlf	??_LCD_cmd,f
  7060  0A30  3EFF               	addlw	-1
  7061  0A31  1D03               	skipz
  7062  0A32  2A2E               	goto	u2615
  7063  0A33  1003               	clrc
  7064  0A34  0D70               	rlf	??_LCD_cmd,w
  7065  0A35  1283               	bcf	3,5	;RP0=0, select bank0
  7066  0A36  1303               	bcf	3,6	;RP1=0, select bank0
  7067  0A37  0087               	movwf	7	;volatile
  7068  0A38                     l2107:
  7069                           
  7070                           ;main.c: 111:    RC2 =0;
  7071  0A38  1107               	bcf	7,2	;volatile
  7072  0A39                     l2109:
  7073                           
  7074                           ;main.c: 112:    RC3 =1;
  7075  0A39  1587               	bsf	7,3	;volatile
  7076  0A3A                     l2111:
  7077                           
  7078                           ;main.c: 113:    _delay((unsigned long)((10)*(20000000/4000.0)));
  7079  0A3A  3041               	movlw	65
  7080  0A3B  00F1               	movwf	??_LCD_cmd+1
  7081  0A3C  30EE               	movlw	238
  7082  0A3D  00F0               	movwf	??_LCD_cmd
  7083  0A3E                     u3617:
  7084  0A3E  0BF0               	decfsz	??_LCD_cmd,f
  7085  0A3F  2A3E               	goto	u3617
  7086  0A40  0BF1               	decfsz	??_LCD_cmd+1,f
  7087  0A41  2A3E               	goto	u3617
  7088  0A42  0000               	nop
  7089  0A43                     l2113:
  7090                           
  7091                           ;main.c: 114:    RC3 =0;
  7092  0A43  1283               	bcf	3,5	;RP0=0, select bank0
  7093  0A44  1303               	bcf	3,6	;RP1=0, select bank0
  7094  0A45  1187               	bcf	7,3	;volatile
  7095  0A46                     l2115:
  7096                           
  7097                           ;main.c: 115:    _delay((unsigned long)((10)*(20000000/4000.0)));
  7098  0A46  3041               	movlw	65
  7099  0A47  00F1               	movwf	??_LCD_cmd+1
  7100  0A48  30EE               	movlw	238
  7101  0A49  00F0               	movwf	??_LCD_cmd
  7102  0A4A                     u3627:
  7103  0A4A  0BF0               	decfsz	??_LCD_cmd,f
  7104  0A4B  2A4A               	goto	u3627
  7105  0A4C  0BF1               	decfsz	??_LCD_cmd+1,f
  7106  0A4D  2A4A               	goto	u3627
  7107  0A4E  0000               	nop
  7108  0A4F                     l110:
  7109  0A4F  0008               	return
  7110  0A50                     __end_of_LCD_cmd:
  7111  007E                     btemp	set	126	;btemp
  7112  007E                     wtemp0	set	126
  7113                           
  7114                           	psect	idloc
  7115                           
  7116                           ;Config register IDLOC0 @ 0x2000
  7117                           ;	unspecified, using default values
  7118  2000                     	org	8192
  7119  2000  3FFF               	dw	16383
  7120                           
  7121                           ;Config register IDLOC1 @ 0x2001
  7122                           ;	unspecified, using default values
  7123  2001                     	org	8193
  7124  2001  3FFF               	dw	16383
  7125                           
  7126                           ;Config register IDLOC2 @ 0x2002
  7127                           ;	unspecified, using default values
  7128  2002                     	org	8194
  7129  2002  3FFF               	dw	16383
  7130                           
  7131                           ;Config register IDLOC3 @ 0x2003
  7132                           ;	unspecified, using default values
  7133  2003                     	org	8195
  7134  2003  3FFF               	dw	16383
  7135                           
  7136                           	psect	config
  7137                           
  7138                           ;Config register CONFIG @ 0x2007
  7139                           ;	Oscillator Selection bits
  7140                           ;	FOSC = HS, HS oscillator
  7141                           ;	Watchdog Timer Enable bit
  7142                           ;	WDTE = OFF, WDT disabled
  7143                           ;	Power-up Timer Enable bit
  7144                           ;	PWRTE = OFF, PWRT disabled
  7145                           ;	Brown-out Reset Enable bit
  7146                           ;	BOREN = ON, BOR enabled
  7147                           ;	Low-Voltage (Single-Supply) In-Circuit Serial Programming Enable bit
  7148                           ;	LVP = ON, RB3/PGM pin has PGM function; low-voltage programming enabled
  7149                           ;	Data EEPROM Memory Code Protection bit
  7150                           ;	CPD = OFF, Data EEPROM code protection off
  7151                           ;	Flash Program Memory Write Enable bits
  7152                           ;	WRT = OFF, Write protection off; all program memory may be written to by EECON control
  7153                           ;	In-Circuit Debugger Mode bit
  7154                           ;	DEBUG = 0x1, unprogrammed default
  7155                           ;	Flash Program Memory Code Protection bit
  7156                           ;	CP = OFF, Code protection off
  7157  2007                     	org	8199
  7158  2007  3FFA               	dw	16378

Data Sizes:
    Strings     326
    Constant    0
    Data        52
    BSS         14
    Persistent  0
    Stack       0

Auto Spaces:
    Space          Size  Autos    Used
    COMMON           14     14      14
    BANK0            80     71      80
    BANK1            80      0      57
    BANK3            96      0       0
    BANK2            96      0       0

Pointer List with Targets:

    frexp@eptr	PTR int  size(1) Largest target is 2
		 -> trunc@expon(BANK0[2]), 

    show@s	PTR unsigned char  size(2) Largest target is 23
		 -> STR_21(CODE[11]), STR_20(CODE[13]), STR_19(CODE[12]), STR_18(CODE[12]), 
		 -> STR_17(CODE[20]), STR_16(CODE[20]), STR_15(CODE[20]), STR_14(CODE[10]), 
		 -> STR_13(CODE[18]), STR_12(CODE[18]), STR_11(CODE[8]), STR_10(CODE[16]), 
		 -> STR_9(CODE[15]), STR_8(CODE[18]), STR_7(CODE[12]), STR_6(CODE[14]), 
		 -> STR_5(CODE[15]), STR_4(CODE[21]), STR_3(CODE[21]), STR_2(CODE[21]), 
		 -> STR_1(CODE[23]), 


Critical Paths under _main in COMMON

    _welcome_text->_show
    _result_display->___xxtofl
    _trunc->___xxtofl
    _trunc->_frexp
    _frexp->___fleq
    ___fltol->___xxtofl
    _lookuptable->_show
    _show->_LCD_dat
    _LCD_num->___xxtofl
    _attach_sizes->___bmul
    _LCD_init->_LCD_cmd

Critical Paths under _main in BANK0

    _main->_result_display
    _rotation->_LCD_num
    _result_display->_LCD_num
    _round->___flsub
    _trunc->___fltol
    ___flsub->_trunc
    _proceeding_text->_LCD_num
    _fetch_sizes->_LCD_num
    _display_data->_LCD_num
    _LCD_num->_round

Critical Paths under _main in BANK1

    None.

Critical Paths under _main in BANK3

    None.

Critical Paths under _main in BANK2

    None.

Call Graph Tables:

 ---------------------------------------------------------------------------------
 (Depth) Function   	        Calls       Base Space   Used Autos Params    Refs
 ---------------------------------------------------------------------------------
 (0) _main                                                 4     4      0   41895
                                             67 BANK0      4     4      0
                           _LCD_init
                             ___bmul
                       _attach_sizes
                       _display_data
                        _fetch_sizes
                            _keyinit
                        _lookuptable
                    _proceeding_text
                     _result_display
                           _rotation
                       _welcome_text
                _winiding_time_check
 ---------------------------------------------------------------------------------
 (1) _winiding_time_check                                  2     0      2      98
                                              0 COMMON     2     0      2
 ---------------------------------------------------------------------------------
 (1) _welcome_text                                         3     3      0    1729
                                              5 COMMON     3     3      0
                            _LCD_cmd
                               _show
 ---------------------------------------------------------------------------------
 (1) _rotation                                             7     5      2    5936
                                             54 BANK0      7     5      2
                            _LCD_cmd
                            _LCD_num
                               _show
 ---------------------------------------------------------------------------------
 (1) _result_display                                      13    11      2   13628
                                             54 BANK0     13    11      2
                            _LCD_cmd
                            _LCD_num
                            ___fltol
                           ___xxtofl
                              _round
                               _show
 ---------------------------------------------------------------------------------
 (2) _round                                                8     4      4    6859
                                             30 BANK0      8     4      4
                            ___fladd
                            ___flsub
                              _trunc
 ---------------------------------------------------------------------------------
 (3) _trunc                                               11     7      4    1898
                                             11 BANK0     11     7      4
                            ___fltol
                           ___xxtofl
                              _frexp
 ---------------------------------------------------------------------------------
 (4) _frexp                                                7     2      5     728
                                             12 COMMON     2     2      0
                                              0 BANK0      5     0      5
                             ___fleq
 ---------------------------------------------------------------------------------
 (5) ___fleq                                              12     4      8     368
                                              0 COMMON    12     4      8
 ---------------------------------------------------------------------------------
 (4) ___xxtofl                                            14    10      4     474
                                              0 COMMON    14    10      4
 ---------------------------------------------------------------------------------
 (4) ___fltol                                             11     7      4     381
                                              0 BANK0     11     7      4
                           ___xxtofl (ARG)
 ---------------------------------------------------------------------------------
 (3) ___flsub                                              8     0      8    2485
                                             22 BANK0      8     0      8
                            ___fladd
                              _trunc (ARG)
 ---------------------------------------------------------------------------------
 (4) ___fladd                                             20    12      8    2288
                                              0 COMMON    12     4      8
                                              0 BANK0      8     8      0
 ---------------------------------------------------------------------------------
 (1) _proceeding_text                                      5     4      1    5934
                                             54 BANK0      5     4      1
                            _LCD_cmd
                            _LCD_dat
                            _LCD_num
                               _show
 ---------------------------------------------------------------------------------
 (1) _lookuptable                                         37    37      0    1945
                                              5 COMMON     1     1      0
                                              0 BANK0     36    36      0
                            _LCD_cmd
                               _show
 ---------------------------------------------------------------------------------
 (1) _keyinit                                              0     0      0       0
 ---------------------------------------------------------------------------------
 (1) _fetch_sizes                                          3     3      0    5770
                                             54 BANK0      3     3      0
                            _LCD_cmd
                            _LCD_num
                                _key
                               _show
 ---------------------------------------------------------------------------------
 (2) _key                                                  3     3      0       0
                                              0 COMMON     3     3      0
 ---------------------------------------------------------------------------------
 (1) _display_data                                         4     4      0    5792
                                             54 BANK0      4     4      0
                            _LCD_cmd
                            _LCD_num
                               _show
 ---------------------------------------------------------------------------------
 (2) _show                                                 2     0      2    1685
                                              3 COMMON     2     0      2
                            _LCD_dat
 ---------------------------------------------------------------------------------
 (2) _LCD_num                                             16    14      2    4041
                                             38 BANK0     16    14      2
                            _LCD_dat
                            ___fltol (ARG)
                            ___lwdiv
                            ___lwmod
                           ___xxtofl (ARG)
                              _round (ARG)
 ---------------------------------------------------------------------------------
 (3) ___lwmod                                              6     2      4    1071
                                              0 COMMON     6     2      4
 ---------------------------------------------------------------------------------
 (3) ___lwdiv                                              8     4      4    1074
                                              0 COMMON     8     4      4
 ---------------------------------------------------------------------------------
 (3) _LCD_dat                                              3     3      0      44
                                              0 COMMON     3     3      0
 ---------------------------------------------------------------------------------
 (1) _attach_sizes                                         5     5      0     443
                                              4 COMMON     5     5      0
                             ___bmul
 ---------------------------------------------------------------------------------
 (2) ___bmul                                               4     3      1     396
                                              0 COMMON     4     3      1
 ---------------------------------------------------------------------------------
 (1) _LCD_init                                             0     0      0      44
                            _LCD_cmd
 ---------------------------------------------------------------------------------
 (2) _LCD_cmd                                              3     3      0      44
                                              0 COMMON     3     3      0
 ---------------------------------------------------------------------------------
 Estimated maximum stack depth 5
 ---------------------------------------------------------------------------------

 Call Graph Graphs:

 _main (ROOT)
   _LCD_init
     _LCD_cmd
   ___bmul
   _attach_sizes
     ___bmul
   _display_data
     _LCD_cmd
     _LCD_num
       _LCD_dat
       ___fltol (ARG)
         ___xxtofl (ARG)
       ___lwdiv (ARG)
       ___lwmod (ARG)
       ___xxtofl (ARG)
       _round (ARG)
         ___fladd
         ___flsub
           ___fladd
           _trunc (ARG)
             ___fltol
             ___xxtofl
             _frexp
               ___fleq
         _trunc
     _show
       _LCD_dat
   _fetch_sizes
     _LCD_cmd
     _LCD_num
     _key
     _show
   _keyinit
   _lookuptable
     _LCD_cmd
     _show
   _proceeding_text
     _LCD_cmd
     _LCD_dat
     _LCD_num
     _show
   _result_display
     _LCD_cmd
     _LCD_num
     ___fltol
     ___xxtofl
     _round
     _show
   _rotation
     _LCD_cmd
     _LCD_num
     _show
   _welcome_text
     _LCD_cmd
     _show
   _winiding_time_check

 Address spaces:
Name               Size   Autos  Total    Cost      Usage
BANK3               60      0       0       9        0.0%
BITBANK3            60      0       0       8        0.0%
SFR3                 0      0       0       4        0.0%
BITSFR3              0      0       0       4        0.0%
BANK2               60      0       0      11        0.0%
BITBANK2            60      0       0      10        0.0%
SFR2                 0      0       0       5        0.0%
BITSFR2              0      0       0       5        0.0%
BANK1               50      0      39       7       71.2%
BITBANK1            50      0       0       6        0.0%
SFR1                 0      0       0       2        0.0%
BITSFR1              0      0       0       2        0.0%
BANK0               50     47      50       5      100.0%
BITBANK0            50      0       0       4        0.0%
SFR0                 0      0       0       1        0.0%
BITSFR0              0      0       0       1        0.0%
COMMON               E      E       E       1      100.0%
BITCOMMON            E      0       0       0        0.0%
CODE                 0      0       0       0        0.0%
DATA                 0      0      97      12        0.0%
ABS                  0      0      97       3        0.0%
NULL                 0      0       0       0        0.0%
STACK                0      0       0       2        0.0%
EEDATA             100      0       0       0        0.0%


Microchip Technology PIC Macro Assembler V2.32 build 20210201212658 
Symbol Table                                                                                   Wed May 25 15:23:30 2022

                           pc 0002                ___bmul@product 0072                            l99 0CEE  
                          _b1 006C                            _b2 006B                            _c1 006A  
                          _c2 0069                            _n1 0068                            _n2 0067  
                          _bs 00D7                            _cs 00D6                            fsr 0004  
               ?_display_data 0070                           l100 0CEE                           l110 0A4F  
                         l200 0E8B                           l113 0A9B                           l130 032E  
                         l122 1711                           l107 1762                           l203 17FF  
                         l211 0C72                           l132 02AF                           l212 0C76  
                         l221 0543                           l125 0267                           l119 002B  
                         l135 033E                           l231 0F45                           l215 0DF6  
                         l207 171B                           l152 038D                           l136 02D8  
                         l225 0543                           l145 0350                           l138 02D5  
                         l155 03AF                           l147 0363                           l139 0303  
                         l148 038D                           l228 09BF                           l149 0378  
                         l158 0119                           l510 0D58                           l343 1743  
                         l503 0D6D                           l513 0D6D                           l610 05A7  
                         l197 0263                           l614 0650                           l631 0721  
                         l623 07DB                           l616 0625                           l641 0769  
                         l635 0747                           l652 07CD                           l644 07A9  
                         l653 07DB                           l750 0F68                           l486 0AB8  
                         l487 0AD4                           l656 1786                           l752 0FFF  
                         l488 0AE9                           l770 0C00                           l763 0FC9  
                         l764 0FD5                           l756 0FAD                           l589 0A03  
                         l599 17C0                           l783 0B3D                           l776 0B99  
                         _RB1 0031                           _RC2 003A                           _RD0 0040  
                         _RB4 0034                           _RC3 003B                           _RD1 0041  
                         _RD2 0042                           _RD3 0043                           _RB7 0037  
                         _RD4 0044                           _RD5 0045                           _RD6 0046  
                         _RD7 0047                           _key 0264                           fsr0 0004  
                         indf 0000                 ?_attach_sizes 0070               __end_of_LCD_dat 0A9C  
             __end_of_LCD_cmd 0A50                  ___fltol@exp1 002A               __end_of_LCD_num 0544  
                        l2001 0B3C                          l2011 0A6B                          l2101 0A15  
                        l2021 0A8F                          l2013 0A77                          l2005 0A51  
                        l2111 0A3A                          l2103 0A1F                          l2023 0A92  
                        l2015 0A84                          l2007 0A54                          l2031 09CB  
                        l2113 0A43                          l2105 0A2B                          l2017 0A85  
                        l2009 0A61                          l2041 09F1                          l2033 09D2  
                        l2025 09C0                          l2121 0015                          l2201 037C  
                        l2115 0A46                          l2107 0A38                          l2019 0A86  
                        l2043 09F2                          l2035 09D6                          l2027 09C2  
                        l2051 1787                          l2123 001B                          l2211 0395  
                        l2203 0380                          l2131 0273                          l2109 0A39  
                        l2301 1744                          l2045 09F9                          l2037 09DA  
                        l2029 09C8                          l2061 179F                          l2053 178D  
                        l2221 03BB                          l2117 0006                          l2213 0399  
                        l2205 0384                          l2141 02A1                          l2133 0278  
                        l2125 0264                          l2039 09EB                          l2047 09FF  
                        l2063 17A9                          l2055 1790                          l2231 03EC  
                        l2223 03C3                          l2119 0007                          l2215 039D  
                        l2207 0388                          l2151 02CD                          l2143 02A5  
                        l2135 0285                          l2127 026B                          l2311 09A9  
                        l2303 097F                          l2065 17AF                          l2057 1797  
                        l2241 0422                          l2233 03FF                          l2225 03CC  
                        l2209 0391                          l2161 02FE                          l2153 02D1  
                        l2145 02A9                          l2137 0288                          l2129 026F  
                        l2321 0038                          l2401 025A                          l2073 1763  
                        l2081 0B51                          l2313 09B2                          l2305 098B  
                        l2403 17C1                          l2067 17B6                          l2059 179B  
                        l2251 047D                          l2243 0448                          l2235 0406  
                        l2227 03D5                          l2219 03B0                          l2411 0DFA  
                        l2171 0332                          l2163 031D                          l2155 02F2  
                        l2147 02AD                          l2139 029D                          l2331 006D  
                        l2323 0041                          l2315 170A                          l2075 1767  
                        l2091 0B6A                          l2083 0B57                          l2307 0994  
                        l2405 17E9                          l2069 17BC                          l2261 04C8  
                        l2253 0486                          l2245 044C                          l2229 03E8  
                        l2237 0410                          l2421 0E34                          l2413 0E06  
                        l2181 034A                          l2173 0336                          l2165 0321  
                        l2157 02F6                          l2149 02C9                          l2341 009A  
                        l2333 007B                          l2325 004B                          l2317 170E  
                        l2093 0B91                          l2501 0DC7                          l2309 09A3  
                        l2407 17EF                          l2271 0520                          l2263 04CC  
                        l2247 0463                          l2239 0419                          l2255 0490  
                        l2431 0E7C                          l2423 0E3A                          l2415 0E0F  
                        l2191 0360                          l2183 034E                          l2175 033A  
                        l2167 0325                          l2159 02FA                          l2351 00DF  
                        l2343 00A6                          l2335 0081                          l2327 0057  
                        l2319 002C                          l1711 0AE8                          l1703 0A9C  
                        l2087 0B60                          l2079 0B3E                          l2503 0DDF  
                        l2511 0C80                          l2097 0A05                          l2273 0527  
                        l2265 04E3                          l2257 0499                          l2249 0476  
                        l2425 0E5F                          l2417 0E1E                          l2193 0367  
                        l2185 0354                          l2177 0342                          l2169 0329  
                        l2353 00E9                          l2345 00B0                          l2337 0087  
                        l2329 0061                          l2361 011A                          l2441 0EB8  
                        l2433 0E8F                          l1801 05B9                          l1721 0D08  
                        l1705 0AB0                          l2089 0B69                          l2281 0BCA  
                        l2505 0DE8                          l2521 0C8F                          l2513 0C85  
                        l2099 0A08                          l2291 1735                          l2275 0530  
                        l2267 04F6                          l2259 04A2                          l2427 0E68  
                        l2419 0E24                          l2195 036B                          l2187 0358  
                        l2179 0346                          l2355 00F5                          l2347 00BC  
                        l2339 0090                          l2371 0206                          l2363 01F2  
                        l2451 0EFB                          l2443 0ED5                          l2435 0E9B  
                        l1811 05CD                          l1803 05BD                          l1731 0D2C  
                        l1723 0D1D                          l1715 0CF2                          l1707 0ACC  
                        l2283 0BE9                          l2531 0CBF                          l2523 0C94  
                        l2515 0C8A                          l2507 0C77                          l2293 1739  
                        l2277 0539                          l2269 050D                          l2429 0E6E  
                        l2197 036F                          l2189 035C                          l2357 00FF  
                        l2349 00D6                          l2381 0220                          l2373 020B  
                        l2365 01F7                          l2453 0F09                          l2445 0EDE  
                        l2437 0EA4                          l1901 0750                          l1821 05E1  
                        l1813 05D1                          l1805 05C1                          l1725 0D1E  
                        l1717 0CFF                          l1709 0AE6                          l2461 1712  
                        l2533 0CCD                          l2525 0C9E                          l2517 0C8A  
                        l2509 0C7B                          l2295 173B                          l2287 1730  
                        l2199 0373                          l2359 010B                          l2391 023A  
                        l2383 0225                          l2367 01FC                          l2375 0210  
                        l2455 0F1D                          l2447 0EEC                          l2439 0EB2  
                        l1911 0760                          l1903 0755                          l1831 05F2  
                        l1823 05E5                          l1815 05D5                          l1807 05C5  
                        l1751 0544                          l1727 0D26                          l2279 0B9A  
                        l2471 0C25                          l2463 1718                          l2535 0CD4  
                        l2527 0CA4                          l2519 0C8A                          l2297 1742  
                        l2289 1731                          l2393 023F                          l2385 022A  
                        l2377 0216                          l2369 0201                          l2457 0F23  
                        l2449 0EF2                          l1921 0781                          l1913 0766  
                        l1905 0757                          l1841 063A                          l1833 0609  
                        l1825 05E9                          l1817 05D9                          l1809 05C9  
                        l1761 055B                          l1753 054B                          l1745 0D4D  
                        l1737 0D34                          l1729 0D28                          l2473 0C2B  
                        l2465 0C01                          l2529 0CB5                          l2395 0244  
                        l2379 021B                          l2387 022F                          l2459 0F37  
                        l1931 07BB                          l1923 0785                          l1907 075B  
                        l1851 0659                          l1843 063B                          l1835 0629  
                        l1827 05ED                          l1819 05DD                          l1771 0573  
                        l1763 0560                          l1755 0551                          l1747 0D5D  
                        l1739 0D46                          l2491 0D6E                          l2483 0C4F  
                        l2475 0C3A                          l2467 0C0D                          l2397 0249  
                        l2389 0235                          l1941 07D6                          l1933 07C0  
                        l1925 07A5                          l1917 076E                          l1909 075C  
                        l1861 0681                          l1845 0646                          l1837 0634  
                        l1829 05F1                          l1781 0589                          l1773 0578  
                        l1765 0568                          l1757 0555                          l1749 0D62  
                        l2493 0D7A                          l2485 0C5E                          l2477 0C3D  
                        l2469 0C16                          l2399 024E                          l1943 07DA  
                        l1935 07C1                          l1927 07AE                          l1919 0773  
                        l1871 069E                          l1863 068C                          l1855 0662  
                        l1839 0636                          l1847 064A                          l1791 059D  
                        l1783 058A                          l1775 057E                          l1767 0569  
                        l1759 0556                          l1951 0F60                          l2495 0D83  
                        l2487 0C69                          l2479 0C41                          l1937 07C5  
                        l1929 07B3                          l1881 0704                          l1865 068E  
                        l1857 0679                          l1849 0654                          l1873 06A3  
                        l1785 058F                          l1793 059F                          l1777 057F  
                        l1769 056B                          l1961 0F8B                          l1953 0F70  
                        l1945 0F47                          l2497 0D92                          l1939 07C7  
                        l1891 0737                          l1875 06B9                          l1883 0713  
                        l1867 0692                          l1859 067D                          l1795 05AD  
                        l1787 0594                          l1779 0585                          l1971 0FBF  
                        l1963 0F92                          l1947 0F4C                          l2499 0D98  
                        l1893 0742                          l1885 0729                          l1877 06F9  
                        l1869 0693                          l1797 05B1                          l1789 059C  
                        l1981 0FF2                          l1973 0FC3                          l1965 0F96  
                        l1957 0F79                          l1949 0F50                          l1895 0746  
                        l1887 072E                          l1879 06FF                          l1799 05B5  
                        l1983 0FF6                          l1975 0FCD                          l1967 0FA4  
                        l1959 0F7E                          l1991 0B05                          l1897 074B  
                        l1985 0FF7                          l1977 0FD7                          l1969 0FB4  
                        l1899 074E                          l1979 0FED                          l1995 0B0E  
                        l1997 0B2B                          l1989 0AEA                          l1999 0B38  
                        ?_key 0070                          STR_1 0800                          STR_2 082C  
                        STR_3 0841                          STR_4 0817                          STR_5 08D8  
                        STR_6 08F6                          STR_7 0911                          STR_8 0892  
                        STR_9 08E7                          u2000 0654                          u2001 0653  
                        u2010 0659                          u2011 0658                          u2100 0704  
                        u2101 0703                          u2021 066B                          u2110 0729  
                        u2030 067D                          u2022 0672                          u2111 0728  
                        u2031 067C                          u2023 0679                          u3000 0346  
                        u2200 076D                          u2120 072E                          u2040 0681  
                        u3001 0345                          u2201 076C                          u2121 072D  
                        u2041 0680                          u3010 034A                          u2210 0773  
                        u2050 0692                          u3011 0349                          u2211 0772  
                        u2051 0691                          u3100 0373                          u3020 034E  
                        u2220 0785                          u2140 0746                          u2300 0F4C  
                        u3101 0372                          u3021 034D                          u2221 0784  
                        u2141 0745                          u2301 0F4B                          u3110 037C  
                        u3030 0354                          u2230 0796                          u2150 074B  
                        u2070 06B9                          u2310 0F50                          u3111 037B  
                        u3031 0353                          u2151 074A                          u2135 073B  
                        u2071 06B8                          u2311 0F4F                          u3200 03BB  
                        u3120 0380                          u3040 0358                          u2240 07A5  
                        u2160 0755                          u2400 0FCD                          u2320 0F70  
                        u3201 03BA                          u3121 037F                          u3041 0357  
                        u2241 07A4                          u2161 0754                          u2081 06D2  
                        u2073 06B5                          u2065 0697                          u2401 0FCC  
                        u2321 0F6F                          u3210 03CC                          u3130 0384  
                        u3050 035C                          u2250 07AE                          u2170 075B  
                        u2090 06E6                          u2082 06D3                          u2410 0FE2  
                        u3211 03CB                          u3131 0383                          u3051 035B  
                        u2251 07AD                          u2235 0791                          u2171 075A  
                        u2091 06E7                          u2083 06D8                          u2500 09EB  
                        u3220 03D5                          u3140 0388                          u3060 0360  
                        u3300 01FC                          u2260 07B3                          u2180 0760  
                        u2092 06EC                          u2084 06D9                          u2420 0FF2  
                        u2340 0F91                          u2501 09EA                          u3221 03D4  
                        u3141 0387                          u3061 035F                          u3301 01FB  
                        u2261 07B2                          u2181 075F                          u2093 06ED  
                        u2085 06DE                          u2421 0FF1                          u2341 0F90  
                        u3230 0419                          u3150 0391                          u3070 0367  
                        u3310 0201                          u2270 07C0                          u2190 0766  
                        u2086 06DF                          u2430 0FF6                          u1710 0AB0  
                        u3231 0418                          u3151 0390                          u3071 0366  
                        u3311 0200                          u2271 07BF                          u2191 0765  
                        u2431 0FF5                          u2415 0FDD                          u2335 0F83  
                        u1711 0AAF                          u2520 09FF                          u3240 0422  
                        u3160 0395                          u3080 036B                          u3320 0216  
                        u2280 07C5                          u1800 0D4C                          u2360 0FB3  
                        u1720 0ACC                          u2440 0B05                          u2600 0B69  
                        u3400 0CD4                          u2521 09FE                          u2505 09E7  
                        u3241 0421                          u3161 0394                          u3081 036A  
                        u3321 0215                          u2281 07C4                          u1801 0D4B  
                        u2361 0FB2                          u1721 0ACB                          u2441 0B04  
                        u2601 0B68                          u3401 0CD3                          u2530 178D  
                        u3250 0499                          u3170 0399                          u3090 036F  
                        u3330 021B                          u2290 07DA                          u1730 0AE6  
                        u2515 09F3                          u2531 178C                          u3251 0498  
                        u3171 0398                          u3091 036E                          u3331 021A  
                        u2291 07D9                          u2355 0FA5                          u1731 0AE5  
                        u2460 09C8                          u3260 04A2                          u2620 002B  
                        u3180 039D                          u2700 02A1                          u3340 0220  
                        u1900 0594                          u1820 0D5D                          u1740 0CFF  
                        u2380 0FC3                          u2461 09C7                          u3261 04A1  
                        u2621 002A                          u3181 039C                          u2701 02A0  
                        u3341 021F                          u1901 0593                          u1821 0D5C  
                        u1741 0CFE                          u2381 0FC2                          u3270 1735  
                        u2550 179F                          u2710 02A5                          u2630 026B  
                        u3350 0235                          u1910 05AD                          u1830 0D62  
                        u1750 0D16                          u2390 0FC9                          u2615 0A2E  
                        u3271 1734                          u2455 0A7A                          u2551 179E  
                        u2711 02A4                          u2631 026A                          u3351 0234  
                        u1911 05AC                          u1831 0D61                          u1815 0D4F  
                        u2391 0FC8                          u2375 0FB8                          u1735 0AE2  
                        u3280 1742                          u2480 09DA                          u2560 17A9  
                        u2800 02D5                          u2720 02A9                          u2640 026F  
                        u3360 023A                          u1920 05B1                          u1840 0555  
                        u1760 0D2C                          u3281 1741                          u2481 09D9  
                        u2561 17A8                          u2545 1791                          u2801 02D4  
                        u2721 02A8                          u2641 026E                          u3361 0239  
                        u1921 05B0                          u1841 0554                          u1761 0D2B  
                        u3417 09B8                          u2810 02E1                          u2730 02AD  
                        u2650 0273                          u3370 023F                          u3290 01F7  
                        u1930 0609                          u1850 055B                          u1770 0D33  
                        u2475 09CC                          u3195 03A0                          u2811 02DD  
                        u2731 02AC                          u2651 0272                          u3507 0113  
                        u3371 023E                          u3291 01F6                          u1931 0608  
                        u1851 055A                          u1771 0D32                          u1755 0D11  
                        u3427 0C57                          u2580 17BC                          u2820 02EB  
                        u2740 02B8                          u2660 0277                          u1940 0612  
                        u1860 0560                          u3380 1718                          u2581 17BB  
                        u2565 17A5                          u2821 02E7                          u2741 02B4  
                        u3517 027E                          u2661 0276                          u1941 0610  
                        u1861 055F                          u3437 0DF0                          u3381 1717  
                        u2910 031D                          u2750 02C2                          u2670 0290  
                        u1950 0613                          u1870 057E                          u1790 0D45  
                        u2590 0B57                          u3390 0C4E                          u3607 0A26  
                        u2495 09DB                          u2575 17B0                          u3527 0E84  
                        u2911 031C                          u2751 02BE                          u2671 028C  
                        u3447 0F03                          u1935 0605                          u1871 057D  
                        u1791 0D44                          u2591 0B56                          u3391 0C4D  
                        u2920 0321                          u2904 0319                          u2840 02F2  
                        u2824 02E4                          u2680 029A                          u1960 0629  
                        u1880 0589                          u3617 0A3E                          u3537 0A58  
                        u2921 0320                          u2841 02F1                          u2681 0296  
                        u3457 0F17                          u1961 0628                          u1881 0588  
                        u1785 0D35                          u2930 0325                          u2850 02F6  
                        u2834 02EE                          u2770 02C9                          u2754 02BB  
                        u1970 063A                          u1890 058F                          u3627 0A4A  
                        u3547 0A66                          u2931 0324                          u2851 02F5  
                        u2771 02C8                          u3467 0F2B                          u1971 0639  
                        u1891 058E                          u3395 0C4A                          u2940 0329  
                        u2860 02FA                          u2780 02CD                          u2764 02C5  
                        u2684 0293                          u3557 0A72                          u2941 0328  
                        u2861 02F9                          u2781 02CC                          u3477 0F3F  
                        u2950 0332                          u2870 02FE                          u2790 02D1  
                        u2694 029D                          u1990 0650                          u3567 0A8A  
                        u2951 0331                          u2871 02FD                          u2791 02D0  
                        u3487 0075                          u1991 064F                          u2960 0336  
                        u2880 030C                          u3577 0A96                          u2961 0335  
                        u2881 0308                          u3497 00C4                          u1985 063F  
                        u2970 033A                          u2890 0316                          u3587 0A0C  
                        u2971 0339                          u2891 0312                          u2980 033E  
                        u3597 0A1A                          u2981 033D                          u2990 0342  
                        u2894 030F                          u2991 0341                          _main 0C77  
                        _show 0006                          btemp 007E                          start 0000  
           ___bmul@multiplier 0073  __size_of_winiding_time_check 000A                         ??_key 0070  
            __end_of_LCD_init 1763                ??_display_data 0056              ??_result_display 0058  
               ___fltol@sign1 0029               __end_of___fladd 07DC                         ?_main 0070  
                       STR_10 08C8                         STR_11 093E                         STR_20 0904  
                       STR_12 08B6                         STR_21 0929                         STR_13 08A4  
                       STR_14 0934                         STR_15 086A                         STR_16 087E  
                       STR_17 0856                         STR_18 0898                         STR_19 091D  
                       ?_show 0073               __end_of___flsub 1787               __end_of___fltol 0D6E  
             __end_of___lwdiv 0A04               __end_of___lwmod 17C1                         _PORTC 0007  
                       _PORTD 0008                         _TRISB 0086                         _TRISC 0087  
                       _TRISD 0088                ??_attach_sizes 0074                   LCD_dat@data 0072  
                       _frexp 0AEA                         _errno 00D4               __end_of_keyinit 1712  
                       _round 0B9A                         _trunc 0B3E                         pclath 000A  
                       show@s 0073                         status 0003                         wtemp0 007E  
             __initialization 07DC                  __end_of_main 0CF2                  __end_of_show 002C  
    __size_of_proceeding_text 00BA                        ??_main 0063                        ??_show 0075  
              LCD_num@result1 0052                     ??_LCD_dat 0070                     ??_LCD_cmd 0070  
                   ??_LCD_num 007E                        ?_frexp 0020                        ?_round 003E  
                      ?_trunc 002B                  ?_lookuptable 0070              __end_of___xxtofl 1000  
        __size_of_fetch_sizes 00EE                  rotation@time 0056                        ___bmul 172F  
                      ___fleq 0A9C                     ??___fladd 0020                     ??___flsub 007E  
                   ??___fltol 0024                     ??___lwdiv 0074                     ??___lwmod 0074  
                      _colloc 006E                        _keypad 00A0                        _rowloc 006F  
                      main@nt 0065                 display_data@a 0059                     ??_keyinit 0070  
                      round@f 0042                        round@x 003E              __end_of_rotation 0C77  
                      trunc@i 0030                        trunc@x 002B                  ___xxtofl@arg 007A  
                ___xxtofl@exp 0079                  ___xxtofl@val 0070                    ___fleq@ff1 0070  
                  ___fleq@ff2 0074       __end_of__initialization 07FC          __end_of_display_data 0E8C  
                   ?_LCD_init 0070                    ___fltol@f1 0020            result_display@time 0056  
         ___bmul@multiplicand 0070          __end_of_attach_sizes 1800                __pcstackCOMMON 0070  
                __pidataBANK1 094B                 __end_of_frexp 0B3E                 __end_of_round 0C01  
               __end_of_trunc 0B9A             ??_proceeding_text 0057            _result_display$942 005B  
          _result_display$943 005F              proceeding_text@a 005A              proceeding_text@b 0056  
                     ??_frexp 007C           _winiding_time_check 1712                       ??_round 007E  
                     ??_trunc 002F                    __pbssBANK0 0067                    __pbssBANK1 00D4  
                  ??_LCD_init 0073                    __pmaintext 0C77                       ?___bmul 0070  
                     ?___fleq 0070          ?_winiding_time_check 0070                       _LCD_dat 0A50  
                     _LCD_cmd 0A04                     ?___xxtofl 0070                       _LCD_num 03B0  
     winiding_time_check@time 0070                    __stringtab 1000          __size_of_lookuptable 014A  
       ??_winiding_time_check 0072               __size_of___bmul 0015               __size_of___fleq 004E  
                     ___fladd 0544                       ___flsub 1763                       ___fltol 0CF2  
                     ___lwdiv 09C0                       ___lwmod 1787                     ?_rotation 0056  
                     __ptext1 1712                       __ptext2 097F                       __ptext3 0C01  
                     __ptext4 0D6E                       __ptext5 0B9A                       __ptext6 0B3E  
                     __ptext7 0AEA                       __ptext8 0A9C                       __ptext9 0F46  
                __size_of_key 014C                       _keyinit 170A                    ??___xxtofl 0074  
       __size_of_display_data 0095          end_of_initialization 07FC         __size_of_attach_sizes 003F  
                __pstringtext 0800                    ??_rotation 0058                  _display_data 0DF7  
                 ___fladd@grs 007B                 ?_welcome_text 0070                 ___xxtofl@sign 0078  
             lookuptable@F998 00D0                  _attach_sizes 17C1       __size_of_result_display 0089  
             lookuptable@lut1 0020               lookuptable@lut2 0024               lookuptable@lut3 0028  
             lookuptable@lut4 002C               lookuptable@lut5 0030               lookuptable@lut6 0034  
             lookuptable@lut7 0038               lookuptable@lut8 003C               lookuptable@lut9 0040  
               ??_fetch_sizes 0056             __size_of_LCD_init 001F               _proceeding_text 0E8C  
              __end_of___bmul 1744                __end_of___fleq 0AEA                attach_sizes@n3 0077  
              attach_sizes@n4 0078                attach_sizes@er 0076                    LCD_cmd@cmd 0072  
              ??_welcome_text 0075           start_initialization 07DC                   __end_of_key 03B0  
               LCD_num@digit1 004E                 LCD_num@digit2 0050                 LCD_num@digit3 004C  
               LCD_num@digit4 0048                    LCD_num@val 0046                 LCD_num@result 004A  
                  frexp@value 0020           __end_of_fetch_sizes 011A                      ??___bmul 0071  
                    ??___fleq 0078                    init_fetch0 171C                   __pdataBANK1 00A0  
                   ___fladd@a 0074                     ___fladd@b 0070              LCD_num@remainder 0054  
                    ?_LCD_dat 0070                      ?_LCD_cmd 0070                      ?_LCD_num 0046  
                   ___flsub@a 0036                     ___flsub@b 003A                     ___latbits 0002  
               __pcstackBANK0 0020             __size_of___xxtofl 00BA       __end_of_proceeding_text 0F46  
            ___lwdiv@dividend 0072                      ?___fladd 0070                      ?___flsub 0036  
                    ?___fltol 0020                      ?___lwdiv 0070                      ?___lwmod 0070  
                   __pstrings 1000             __size_of_rotation 0076                      ?_keyinit 0070  
            ___lwdiv@quotient 0075                _result_display 0D6E                __size_of_frexp 0054  
              __size_of_round 0067                __size_of_trunc 005C                 ??_lookuptable 0075  
                 _fetch_sizes 002C   __end_of_winiding_time_check 171C                      _LCD_init 1744  
        __end_of_welcome_text 09C0                   __stringbase 1012              __size_of_LCD_dat 004C  
            __size_of_LCD_cmd 004C        __end_of_result_display 0DF7              __size_of_LCD_num 0194  
                   _turn_time 006D              ?_proceeding_text 0056                     frexp@eptr 0024  
         __end_of_lookuptable 0264              __size_of___fladd 0298              __size_of___flsub 0024  
            __size_of___fltol 007C              __size_of___lwdiv 0044              __size_of___lwmod 003A  
          __end_of__stringtab 1012                      ___xxtofl 0F46              __size_of_keyinit 0008  
             ?_result_display 0056               ___lwdiv@divisor 0070               ___lwdiv@counter 0077  
                    __ptext10 0CF2                      __ptext11 1763                      __ptext20 03B0  
                    __ptext12 0544                      __ptext21 1787                      __ptext13 0E8C  
                    __ptext22 09C0                      __ptext14 011A                      __ptext23 0A50  
                    __ptext15 170A                      __ptext24 17C1                      __ptext16 002C  
                    __ptext25 172F                      __ptext17 0264                      __ptext26 1744  
                    __ptext18 0DF7                      __ptext27 0A04                      __ptext19 0006  
                  trunc@expon 0034                 __size_of_main 007B                 __size_of_show 0026  
                    _no_turns 00D8                      _rotation 0C01                     rotation@i 005B  
                    init_ram0 1720              main@winding_time 0066         __size_of_welcome_text 0041  
            ___lwmod@dividend 0072                   _lookuptable 011A                     stringcode 100A  
             ___lwmod@divisor 0070                  _welcome_text 097F               ___lwmod@counter 0075  
                    stringtab 1000                 ___fladd@signs 0078                  ?_fetch_sizes 0070  
                ___fladd@aexp 0079                  ___fladd@bexp 007A              lookuptable@F1000 00CC  
            lookuptable@F1002 00C8              lookuptable@F1010 00B8              lookuptable@F1004 00C4  
            lookuptable@F1012 00B4              lookuptable@F1006 00C0              lookuptable@F1014 00B0  
            lookuptable@F1008 00BC  
