Microchip MPLAB XC8 Compiler V2.32

Linker command line:

-W-3 --edf=C:\Program Files\Microchip\xc8\v2.32\pic\dat\en_msgs.txt -cn \
  -h+dist/default/production\P03._DATA_RECORDER.production.sym \
  --cmf=dist/default/production\P03._DATA_RECORDER.production.cmf -z \
  -Q16F877A -oC:\Users\Naseef\AppData\Local\Temp\xcAs438.4 \
  --defsym=__MPLAB_BUILD=1 \
  -Mdist/default/production/P03._DATA_RECORDER.production.map -E1 \
  -ver=XC8 Compiler --acfsm=1493 -ASTACK=0110h-016Fh -pstack=STACK \
  -ACODE=00h-07FFhx4 -ASTRCODE=00h-01FFFh -ASTRING=00h-0FFhx32 \
  -ACONST=00h-0FFhx32 -AENTRY=00h-0FFhx32 -ACOMMON=070h-07Fh \
  -ABANK0=020h-06Fh -ABANK1=0A0h-0EFh -ABANK2=0110h-016Fh \
  -ABANK3=0190h-01EFh -ARAM=020h-06Fh,0A0h-0EFh,0110h-016Fh,0190h-01EFh \
  -AABS1=020h-07Fh,0A0h-0EFh,0110h-016Fh,0190h-01EFh -ASFR0=00h-01Fh \
  -ASFR1=080h-09Fh -ASFR2=0100h-010Fh -ASFR3=0180h-018Fh \
  -ACONFIG=02007h-02007h -DCONFIG=2 -AIDLOC=02000h-02003h -DIDLOC=2 \
  -AEEDATA=00h-0FFh/02100h -peeprom_data=EEDATA -DEEDATA=2 -DCODE=2 \
  -DSTRCODE=2 -DSTRING=2 -DCONST=2 -DENTRY=2 \
  -preset_vec=00h,intentry,init,end_init -ppowerup=CODE -pcinit=CODE \
  -pfunctab=ENTRY -k C:\Users\Naseef\AppData\Local\Temp\xcAs438.o \
  dist/default/production\P03._DATA_RECORDER.production.o 

Object code version is 3.11

Machine type is 16F877A



                Name                               Link     Load   Length Selector   Space Scale
C:\Users\Naseef\AppData\Local\Temp\xcAs438.o
                end_init                              0        0        3        0       0
                config                             2007     2007        1        0       4
                idloc                              2000     2000        4        0       5
dist/default/production\P03._DATA_RECORDER.production.o
                cinit                               7E5      7E5       1B      FCA       0
                config                             2007     2007        1        0       4
                idloc                              2000     2000        4        0       5
                text15                              362      362       64      6C4       0
                text14                              1FF      1FF       40      3FE       0
                text13                              197      197       2E      32E       0
                text12                              23F      23F       40      47E       0
                text11                              42D      42D       9D      85A       0
                text10                              2C3      2C3       46      586       0
                text9                               27F      27F       44      4FE       0
                text8                               1C5      1C5       3A      38A       0
                text7                               188      188        F      310       0
                text6                               4CA      4CA       BF      994       0
                text5                               17B      17B        D      2F6       0
                text4                               3C6      3C6       67      78C       0
                text3                               309      309       59      612       0
                text2                               170      170        B      2E0       0
                text1                               653      653      192      CA6       0
                maintext                            589      589       CA      B12       0
                cstackBANK0                          20       20       23       20       1
                cstackCOMMON                         70       70        E       70       1
                dataBANK0                            4E       4E        2       20       1
                bssBANK0                             43       43        B       20       1
                strings                               3        3        8        6       0
                idataBANK0                          16E      16E        2      2DC       0

TOTAL           Name                               Link     Load   Length     Space
        CLASS   STACK          

        CLASS   CODE           
                end_init                              0        0        3         0
                cinit                               7E5      7E5       1B         0
                text15                              362      362       64         0
                text14                              1FF      1FF       40         0
                text13                              197      197       2E         0
                text12                              23F      23F       40         0
                text11                              42D      42D       9D         0
                text10                              2C3      2C3       46         0
                text9                               27F      27F       44         0
                text8                               1C5      1C5       3A         0
                text7                               188      188        F         0
                text6                               4CA      4CA       BF         0
                text5                               17B      17B        D         0
                text4                               3C6      3C6       67         0
                text3                               309      309       59         0
                text2                               170      170        B         0
                text1                               653      653      192         0
                maintext                            589      589       CA         0
                idataBANK0                          16E      16E        2         0

        CLASS   STRCODE        

        CLASS   STRING         
                strings                               3        3        8         0

        CLASS   CONST          

        CLASS   ENTRY          

        CLASS   COMMON         
                cstackCOMMON                         70       70        E         1

        CLASS   BANK0          
                cstackBANK0                          20       20       23         1
                dataBANK0                            4E       4E        2         1
                bssBANK0                             43       43        B         1

        CLASS   BANK1          

        CLASS   BANK2          

        CLASS   BANK3          

        CLASS   RAM            

        CLASS   ABS1           
                abs_s1                               7E       7E        2         1

        CLASS   SFR0           

        CLASS   SFR1           

        CLASS   SFR2           

        CLASS   SFR3           

        CLASS   CONFIG         
                config                             2007     2007        1         4

        CLASS   IDLOC          
                idloc                              2000     2000        4         5

        CLASS   EEDATA         



SEGMENTS        Name                           Load    Length   Top    Selector   Space  Class     Delta

                reset_vec                      000000  000003  000003         0       0  CODE        2
                strings                        000003  000008  00000B         6       0  STRING      2
                cstackBANK0                    000020  000030  000050        20       1  BANK0       1
                cstackCOMMON                   000070  00000E  00007E        70       1  COMMON      1
                idataBANK0                     00016E  000002  000170       2DC       0  CODE        2
                text2                          000170  00000B  00017B       2E0       0  CODE        2
                text5                          00017B  00000D  000188       2F6       0  CODE        2
                text7                          000188  00000F  000197       310       0  CODE        2
                text13                         000197  00002E  0001C5       32E       0  CODE        2
                text8                          0001C5  00003A  0001FF       38A       0  CODE        2
                text14                         0001FF  000040  00023F       3FE       0  CODE        2
                text12                         00023F  000040  00027F       47E       0  CODE        2
                text9                          00027F  000044  0002C3       4FE       0  CODE        2
                text10                         0002C3  000046  000309       586       0  CODE        2
                text3                          000309  000059  000362       612       0  CODE        2
                text15                         000362  000064  0003C6       6C4       0  CODE        2
                text4                          0003C6  000067  00042D       78C       0  CODE        2
                text11                         00042D  00009D  0004CA       85A       0  CODE        2
                text6                          0004CA  0000BF  000589       994       0  CODE        2
                maintext                       000589  0000CA  000653       B12       0  CODE        2
                text1                          000653  000192  0007E5       CA6       0  CODE        2
                cinit                          0007E5  00001B  000800       FCA       0  CODE        2


UNUSED ADDRESS RANGES

        Name                Unused          Largest block    Delta
        BANK0            0050-006F             20           1
        BANK1            00A0-00EF             50           1
        BANK2            0110-016F             60           1
        BANK3            0190-01EF             60           1
        CODE             000B-016D            163           2
                         0800-1FFF            800
        CONST            000B-016D             F5           2
                         0800-1FFF            100
        EEDATA           2100-21FF            100           2
        ENTRY            000B-016D             F5           2
                         0800-1FFF            100
        RAM              0050-006F             20           1
                         00A0-00EF             50
                         0110-016F             60
                         0190-01EF             60
        SFR0             0000-001F             20           1
        SFR1             0080-009F             20           1
        SFR2             0100-010F             10           1
        SFR3             0180-018F             10           1
        STACK            0110-016F             60           1
        STRCODE          000B-016D            163           2
                         0800-1FFF           1800
        STRING           000B-016D             F5           2
                         0800-1FFF            100

                                  Symbol Table

?___aldiv                      cstackBANK0  0020
?___awdiv                      cstackCOMMON 0070
?___awmod                      cstackCOMMON 0070
?___lmul                       cstackCOMMON 0070
?___lwdiv                      cstackCOMMON 0070
?___lwmod                      cstackCOMMON 0070
LCD_Char@data                  cstackCOMMON 0072
LCD_Command@cmnd               cstackCOMMON 0072
LCD_num@digit1                 cstackBANK0  0032
LCD_num@digit2                 cstackBANK0  0034
LCD_num@digit3                 cstackBANK0  0036
LCD_num@remainder              cstackBANK0  003C
LCD_num@result                 cstackBANK0  0038
LCD_num@result1                cstackBANK0  003A
LCD_num@val                    cstackBANK0  002E
_ADCON0                        (abs)        001F
_ADCON1                        (abs)        009F
_ADC_Init                      text15       0362
_ADRESH                        (abs)        001E
_ADRESL                        (abs)        009E
_AV                            bssBANK0     0043
_GO_nDONE                      (abs)        00FA
_LCD_Char                      text12       023F
_LCD_Command                   text14       01FF
_LCD_init                      text13       0197
_LCD_num                       text6        04CA
_PORTB                         (abs)        0006
_RC0                           (abs)        0038
_RC1                           (abs)        0039
_RCIF                          (abs)        0065
_RCREG                         (abs)        001A
_RCSTA                         (abs)        0018
_SPBRG                         (abs)        0099
_TRISB                         (abs)        0086
_TRISC                         (abs)        0087
_TXIF                          (abs)        0064
_TXREG                         (abs)        0019
_TXSTA                         (abs)        0098
__Habs1                        abs1         0000
__Hbank0                       bank0        0000
__Hbank1                       bank1        0000
__Hbank2                       bank2        0000
__Hbank3                       bank3        0000
__HbssBANK0                    bssBANK0     0000
__Hcinit                       cinit        0800
__Hclrtext                     clrtext      0000
__Hcode                        code         0000
__Hcommon                      common       0000
__Hconfig                      config       2008
__HcstackBANK0                 cstackBANK0  0000
__HcstackCOMMON                cstackCOMMON 0000
__HdataBANK0                   dataBANK0    0000
__Heeprom_data                 eeprom_data  0000
__Hend_init                    end_init     0003
__Hfunctab                     functab      0000
__HidataBANK0                  idataBANK0   0000
__Hidloc                       idloc        2004
__Hinit                        init         0000
__Hintentry                    intentry     0000
__Hmaintext                    maintext     0000
__Hpowerup                     powerup      0000
__Hram                         ram          0000
__Hreset_vec                   reset_vec    0000
__Hsfr0                        sfr0         0000
__Hsfr1                        sfr1         0000
__Hsfr2                        sfr2         0000
__Hsfr3                        sfr3         0000
__Hspace_0                     (abs)        0800
__Hspace_1                     (abs)        007E
__Hspace_2                     (abs)        0000
__Hspace_3                     (abs)        0000
__Hspace_4                     (abs)        400F
__Hstack                       stack        0000
__Hstrings                     strings      0000
__Htext                        text         0000
__Labs1                        abs1         0000
__Lbank0                       bank0        0000
__Lbank1                       bank1        0000
__Lbank2                       bank2        0000
__Lbank3                       bank3        0000
__LbssBANK0                    bssBANK0     0000
__Lcinit                       cinit        07E5
__Lclrtext                     clrtext      0000
__Lcode                        code         0000
__Lcommon                      common       0000
__Lconfig                      config       0000
__LcstackBANK0                 cstackBANK0  0000
__LcstackCOMMON                cstackCOMMON 0000
__LdataBANK0                   dataBANK0    0000
__Leeprom_data                 eeprom_data  0000
__Lend_init                    end_init     0000
__Lfunctab                     functab      0000
__LidataBANK0                  idataBANK0   0000
__Lidloc                       idloc        0000
__Linit                        init         0000
__Lintentry                    intentry     0000
__Lmaintext                    maintext     0000
__Lpowerup                     powerup      0000
__Lram                         ram          0000
__Lreset_vec                   reset_vec    0000
__Lsfr0                        sfr0         0000
__Lsfr1                        sfr1         0000
__Lsfr2                        sfr2         0000
__Lsfr3                        sfr3         0000
__Lspace_0                     (abs)        0000
__Lspace_1                     (abs)        0000
__Lspace_2                     (abs)        0000
__Lspace_3                     (abs)        0000
__Lspace_4                     (abs)        0000
__Lstack                       stack        0000
__Lstrings                     strings      0000
__Ltext                        text         0000
__S0                           (abs)        0800
__S1                           (abs)        007E
__S2                           (abs)        0000
__S3                           (abs)        0000
___aldiv                       text11       042D
___aldiv@counter               cstackBANK0  0028
___aldiv@dividend              cstackBANK0  0024
___aldiv@divisor               cstackBANK0  0020
___aldiv@quotient              cstackBANK0  002A
___aldiv@sign                  cstackBANK0  0029
___awdiv                       text4        03C6
___awdiv@counter               cstackCOMMON 0075
___awdiv@dividend              cstackCOMMON 0072
___awdiv@divisor               cstackCOMMON 0070
___awdiv@quotient              cstackCOMMON 0077
___awdiv@sign                  cstackCOMMON 0076
___awmod                       text3        0309
___awmod@counter               cstackCOMMON 0075
___awmod@dividend              cstackCOMMON 0072
___awmod@divisor               cstackCOMMON 0070
___awmod@sign                  cstackCOMMON 0076
___int_sp                      stack        0000
___latbits                     (abs)        0002
___lmul                        text10       02C3
___lmul@multiplicand           cstackCOMMON 0074
___lmul@multiplier             cstackCOMMON 0070
___lmul@product                cstackCOMMON 0079
___lwdiv                       text9        027F
___lwdiv@counter               cstackCOMMON 0077
___lwdiv@dividend              cstackCOMMON 0072
___lwdiv@divisor               cstackCOMMON 0070
___lwdiv@quotient              cstackCOMMON 0075
___lwmod                       text8        01C5
___lwmod@counter               cstackCOMMON 0075
___lwmod@dividend              cstackCOMMON 0072
___lwmod@divisor               cstackCOMMON 0070
___sp                          stack        0000
___stackhi                     (abs)        0000
___stacklo                     (abs)        0000
__end_of_ADC_Init              text15       03C6
__end_of_LCD_Char              text12       027F
__end_of_LCD_Command           text14       023F
__end_of_LCD_init              text13       01C5
__end_of_LCD_num               text6        0589
__end_of___aldiv               text11       04CA
__end_of___awdiv               text4        042D
__end_of___awmod               text3        0362
__end_of___lmul                text10       0309
__end_of___lwdiv               text9        02C3
__end_of___lwmod               text8        01FF
__end_of__initialization       cinit        07FC
__end_of__stringtab            strings      0009
__end_of_intdigits_chardigits  text7        0197
__end_of_main                  maintext     0653
__end_of_ser_int               text5        0188
__end_of_tx                    text2        017B
__end_of_tx_sn                 text1        07E5
__initialization               cinit        07E5
__pbssBANK0                    bssBANK0     0043
__pcstackBANK0                 cstackBANK0  0020
__pcstackCOMMON                cstackCOMMON 0070
__pdataBANK0                   dataBANK0    004E
__pidataBANK0                  idataBANK0   016E
__pmaintext                    maintext     0589
__pstrings                     strings      0003
__ptext1                       text1        0653
__ptext10                      text10       02C3
__ptext11                      text11       042D
__ptext12                      text12       023F
__ptext13                      text13       0197
__ptext14                      text14       01FF
__ptext15                      text15       0362
__ptext2                       text2        0170
__ptext3                       text3        0309
__ptext4                       text4        03C6
__ptext5                       text5        017B
__ptext6                       text6        04CA
__ptext7                       text7        0188
__ptext8                       text8        01C5
__ptext9                       text9        027F
__size_of_ADC_Init             (abs)        0000
__size_of_LCD_Char             (abs)        0000
__size_of_LCD_Command          (abs)        0000
__size_of_LCD_init             (abs)        0000
__size_of_LCD_num              (abs)        0000
__size_of___aldiv              (abs)        0000
__size_of___awdiv              (abs)        0000
__size_of___awmod              (abs)        0000
__size_of___lmul               (abs)        0000
__size_of___lwdiv              (abs)        0000
__size_of___lwmod              (abs)        0000
__size_of_intdigits_chardigits (abs)        0000
__size_of_main                 (abs)        0000
__size_of_ser_int              (abs)        0000
__size_of_tx                   (abs)        0000
__size_of_tx_sn                (abs)        0000
__stringbase                   strings      0008
__stringtab                    strings      0003
_avv                           bssBANK0     004B
_intdigits_chardigits          text7        0188
_main                          maintext     0589
_ser_int                       text5        017B
_sn                            dataBANK0    004E
_tx                            text2        0170
_tx_sn                         text1        0653
btemp                          (abs)        007E
end_of_initialization          cinit        07FC
intdigits_chardigits@a         cstackCOMMON 0070
intdigits_chardigits@b         cstackCOMMON 0072
intdigits_chardigits@c         cstackCOMMON 0074
intlevel0                      functab      0000
intlevel1                      functab      0000
intlevel2                      functab      0000
intlevel3                      functab      0000
intlevel4                      functab      0000
intlevel5                      functab      0000
main@i                         cstackBANK0  0041
main@j                         cstackBANK0  0042
reset_vec                      reset_vec    0000
start                          init         0000
start_initialization           cinit        07E5
tx@a                           cstackCOMMON 0070
tx_sn@digit1                   cstackBANK0  0026
tx_sn@digit2                   cstackBANK0  0028
tx_sn@digit3                   cstackBANK0  0024
tx_sn@digit4                   cstackBANK0  0020
tx_sn@remainder                cstackBANK0  002C
tx_sn@result                   cstackBANK0  0022
tx_sn@result1                  cstackBANK0  002A
tx_sn@val                      cstackCOMMON 0079
wtemp0                         (abs)        007E


MODULE INFORMATION

Module		Function		Class		Link	Load	Size
C:\Program Files\Microchip\xc8\v2.32\pic\sources\c90\common\Umul32.c
		___lmul        		CODE           	02C3	0000	70

C:\Program Files\Microchip\xc8\v2.32\pic\sources\c90\common\Umul32.c estimated size: 70

./uart.h
		_ser_int       		CODE           	017B	0000	13
		_tx_sn         		CODE           	0653	0000	402
		_tx            		CODE           	0170	0000	11

./uart.h estimated size: 426

C:\Program Files\Microchip\xc8\v2.32\pic\sources\c90\common\lwmod.c
		___lwmod       		CODE           	01C5	0000	58

C:\Program Files\Microchip\xc8\v2.32\pic\sources\c90\common\lwmod.c estimated size: 58

C:\Program Files\Microchip\xc8\v2.32\pic\sources\c90\common\awmod.c
		___awmod       		CODE           	0309	0000	89

C:\Program Files\Microchip\xc8\v2.32\pic\sources\c90\common\awmod.c estimated size: 89

shared
		__stringtab    		STRING         	0003	0000	6
		__initialization		CODE           	07E5	0000	23

shared estimated size: 29

./lcd4bit.h
		_LCD_Command   		CODE           	01FF	0000	64
		_intdigits_chardigits		CODE           	0188	0000	15
		_LCD_Char      		CODE           	023F	0000	64
		_LCD_init      		CODE           	0197	0000	46
		_LCD_num       		CODE           	04CA	0000	191

./lcd4bit.h estimated size: 380

C:\Program Files\Microchip\xc8\v2.32\pic\sources\c90\common\lwdiv.c
		___lwdiv       		CODE           	027F	0000	68

C:\Program Files\Microchip\xc8\v2.32\pic\sources\c90\common\lwdiv.c estimated size: 68

C:\Program Files\Microchip\xc8\v2.32\pic\sources\c90\common\awdiv.c
		___awdiv       		CODE           	03C6	0000	103

C:\Program Files\Microchip\xc8\v2.32\pic\sources\c90\common\awdiv.c estimated size: 103

main.c
		_main          		CODE           	0589	0000	202
		_ADC_Init      		CODE           	0362	0000	100

main.c estimated size: 302

C:\Program Files\Microchip\xc8\v2.32\pic\sources\c90\common\aldiv.c
		___aldiv       		CODE           	042D	0000	157

C:\Program Files\Microchip\xc8\v2.32\pic\sources\c90\common\aldiv.c estimated size: 157

